ARM GAS  C:\Users\Andrew\AppData\Local\Temp\ccOg8wBy.s 			page 1


   1              		.cpu cortex-m7
   2              		.eabi_attribute 28, 1
   3              		.eabi_attribute 20, 1
   4              		.eabi_attribute 21, 1
   5              		.eabi_attribute 23, 3
   6              		.eabi_attribute 24, 1
   7              		.eabi_attribute 25, 1
   8              		.eabi_attribute 26, 1
   9              		.eabi_attribute 30, 2
  10              		.eabi_attribute 34, 1
  11              		.eabi_attribute 18, 4
  12              		.file	"digiBassPreamp.cpp"
  13              		.text
  14              	.Ltext0:
  15              		.cfi_sections	.debug_frame
  16              		.section	.text._ZN5daisy9DaisySeedD2Ev,"axG",%progbits,_ZN5daisy9DaisySeedD5Ev,comdat
  17              		.align	1
  18              		.p2align 2,,3
  19              		.weak	_ZN5daisy9DaisySeedD2Ev
  20              		.arch armv7e-m
  21              		.syntax unified
  22              		.thumb
  23              		.thumb_func
  24              		.fpu fpv5-d16
  26              	_ZN5daisy9DaisySeedD2Ev:
  27              	.LVL0:
  28              	.LFB2555:
  29              		.file 1 "../../libDaisy//src/daisy_seed.h"
   1:../../libDaisy//src/daisy_seed.h **** #pragma once
   2:../../libDaisy//src/daisy_seed.h **** #ifndef DSY_SEED_H
   3:../../libDaisy//src/daisy_seed.h **** #define DSY_SEED_H
   4:../../libDaisy//src/daisy_seed.h **** 
   5:../../libDaisy//src/daisy_seed.h **** #include "daisy.h"
   6:../../libDaisy//src/daisy_seed.h **** 
   7:../../libDaisy//src/daisy_seed.h **** //Uncomment this out if you're still using the rev2 hardware
   8:../../libDaisy//src/daisy_seed.h **** //#define SEED_REV2
   9:../../libDaisy//src/daisy_seed.h **** 
  10:../../libDaisy//src/daisy_seed.h **** namespace daisy
  11:../../libDaisy//src/daisy_seed.h **** {
  12:../../libDaisy//src/daisy_seed.h **** /**
  13:../../libDaisy//src/daisy_seed.h ****    @brief This is the higher-level interface for the Daisy board. \n 
  14:../../libDaisy//src/daisy_seed.h ****     All basic peripheral configuration/initialization is setup here. \n
  15:../../libDaisy//src/daisy_seed.h **** 
  16:../../libDaisy//src/daisy_seed.h ****    @ingroup boards
  17:../../libDaisy//src/daisy_seed.h **** */
  18:../../libDaisy//src/daisy_seed.h **** class DaisySeed
  19:../../libDaisy//src/daisy_seed.h **** {
  20:../../libDaisy//src/daisy_seed.h ****   public:
  21:../../libDaisy//src/daisy_seed.h ****     DaisySeed() {}
  22:../../libDaisy//src/daisy_seed.h ****     ~DaisySeed() {}
  30              		.loc 1 22 5 view -0
  31              		.cfi_startproc
  32              		@ args = 0, pretend = 0, frame = 0
  33              		@ frame_needed = 0, uses_anonymous_args = 0
  34              		@ link register save eliminated.
  35              	.LBB106:
  36              	.LBI106:
ARM GAS  C:\Users\Andrew\AppData\Local\Temp\ccOg8wBy.s 			page 2


  37              		.file 2 "../../libDaisy//src/sys/system.h"
   1:../../libDaisy//src/sys/system.h **** #ifndef DSY_SYSTEM_H
   2:../../libDaisy//src/sys/system.h **** #define DSY_SYSTEM_H
   3:../../libDaisy//src/sys/system.h **** 
   4:../../libDaisy//src/sys/system.h **** #ifndef UNIT_TEST // for unit tests, a dummy implementation is provided below
   5:../../libDaisy//src/sys/system.h **** 
   6:../../libDaisy//src/sys/system.h **** #include <cstdint>
   7:../../libDaisy//src/sys/system.h **** #include "per/tim.h"
   8:../../libDaisy//src/sys/system.h **** 
   9:../../libDaisy//src/sys/system.h **** namespace daisy
  10:../../libDaisy//src/sys/system.h **** {
  11:../../libDaisy//src/sys/system.h **** /** A handle for interacting with the Core System.
  12:../../libDaisy//src/sys/system.h ****  ** This includes the Clock tree, MPU, global DMA initialization,
  13:../../libDaisy//src/sys/system.h ****  ** cache handling, and any other necessary global initiailzation
  14:../../libDaisy//src/sys/system.h ****  **
  15:../../libDaisy//src/sys/system.h ****  ** @author shensley
  16:../../libDaisy//src/sys/system.h ****  ** @ingroup system
  17:../../libDaisy//src/sys/system.h ****  */
  18:../../libDaisy//src/sys/system.h **** class System
  19:../../libDaisy//src/sys/system.h **** {
  20:../../libDaisy//src/sys/system.h ****   public:
  21:../../libDaisy//src/sys/system.h ****     /** Contains settings for initializing the System */
  22:../../libDaisy//src/sys/system.h ****     struct Config
  23:../../libDaisy//src/sys/system.h ****     {
  24:../../libDaisy//src/sys/system.h ****         /** Specifies the system clock frequency that feeds APB/AHB clocks, etc. */
  25:../../libDaisy//src/sys/system.h ****         enum class SysClkFreq
  26:../../libDaisy//src/sys/system.h ****         {
  27:../../libDaisy//src/sys/system.h ****             FREQ_400MHZ,
  28:../../libDaisy//src/sys/system.h ****             FREQ_480MHZ,
  29:../../libDaisy//src/sys/system.h ****         };
  30:../../libDaisy//src/sys/system.h **** 
  31:../../libDaisy//src/sys/system.h ****         /** Method to call on the struct to set to defaults
  32:../../libDaisy//src/sys/system.h ****          ** CPU Freq set to 400MHz
  33:../../libDaisy//src/sys/system.h ****          ** Cache Enabled
  34:../../libDaisy//src/sys/system.h ****          ** */
  35:../../libDaisy//src/sys/system.h ****         void Defaults()
  36:../../libDaisy//src/sys/system.h ****         {
  37:../../libDaisy//src/sys/system.h ****             cpu_freq    = SysClkFreq::FREQ_400MHZ;
  38:../../libDaisy//src/sys/system.h ****             use_dcache  = true;
  39:../../libDaisy//src/sys/system.h ****             use_icache  = true;
  40:../../libDaisy//src/sys/system.h ****             skip_clocks = false;
  41:../../libDaisy//src/sys/system.h ****         }
  42:../../libDaisy//src/sys/system.h **** 
  43:../../libDaisy//src/sys/system.h ****         /** Method to call on the struct to set to boost mode:
  44:../../libDaisy//src/sys/system.h ****          ** CPU Freq set to 480MHz
  45:../../libDaisy//src/sys/system.h ****          ** Cache Enabled
  46:../../libDaisy//src/sys/system.h ****          ** */
  47:../../libDaisy//src/sys/system.h ****         void Boost()
  48:../../libDaisy//src/sys/system.h ****         {
  49:../../libDaisy//src/sys/system.h ****             cpu_freq    = SysClkFreq::FREQ_480MHZ;
  50:../../libDaisy//src/sys/system.h ****             use_dcache  = true;
  51:../../libDaisy//src/sys/system.h ****             use_icache  = true;
  52:../../libDaisy//src/sys/system.h ****             skip_clocks = false;
  53:../../libDaisy//src/sys/system.h ****         }
  54:../../libDaisy//src/sys/system.h **** 
  55:../../libDaisy//src/sys/system.h ****         SysClkFreq cpu_freq;
  56:../../libDaisy//src/sys/system.h ****         bool       use_dcache;
ARM GAS  C:\Users\Andrew\AppData\Local\Temp\ccOg8wBy.s 			page 3


  57:../../libDaisy//src/sys/system.h ****         bool       use_icache;
  58:../../libDaisy//src/sys/system.h ****         bool       skip_clocks;
  59:../../libDaisy//src/sys/system.h ****     };
  60:../../libDaisy//src/sys/system.h **** 
  61:../../libDaisy//src/sys/system.h ****     /** Describes the different regions of memory available to the Daisy */
  62:../../libDaisy//src/sys/system.h ****     enum MemoryRegion
  63:../../libDaisy//src/sys/system.h ****     {
  64:../../libDaisy//src/sys/system.h ****         INTERNAL_FLASH = 0,
  65:../../libDaisy//src/sys/system.h ****         ITCMRAM,
  66:../../libDaisy//src/sys/system.h ****         DTCMRAM,
  67:../../libDaisy//src/sys/system.h ****         SRAM_D1,
  68:../../libDaisy//src/sys/system.h ****         SRAM_D2,
  69:../../libDaisy//src/sys/system.h ****         SRAM_D3,
  70:../../libDaisy//src/sys/system.h ****         SDRAM,
  71:../../libDaisy//src/sys/system.h ****         QSPI,
  72:../../libDaisy//src/sys/system.h ****         INVALID_ADDRESS,
  73:../../libDaisy//src/sys/system.h ****     };
  74:../../libDaisy//src/sys/system.h **** 
  75:../../libDaisy//src/sys/system.h ****     /** Bootloader struct for controlling bootloading parameters */
  76:../../libDaisy//src/sys/system.h ****     struct BootInfo
  77:../../libDaisy//src/sys/system.h ****     {
  78:../../libDaisy//src/sys/system.h ****         enum class Type : uint32_t
  79:../../libDaisy//src/sys/system.h ****         {
  80:../../libDaisy//src/sys/system.h ****             INVALID      = 0x00000000,
  81:../../libDaisy//src/sys/system.h ****             JUMP         = 0xDEADBEEF,
  82:../../libDaisy//src/sys/system.h ****             SKIP_TIMEOUT = 0x5AFEB007,
  83:../../libDaisy//src/sys/system.h ****             INF_TIMEOUT  = 0xB0074EFA,
  84:../../libDaisy//src/sys/system.h ****         } status;
  85:../../libDaisy//src/sys/system.h ****         uint32_t data;
  86:../../libDaisy//src/sys/system.h ****         enum class Version : uint32_t
  87:../../libDaisy//src/sys/system.h ****         {
  88:../../libDaisy//src/sys/system.h ****             LT_v6_0 = 0, // Less than v6.0
  89:../../libDaisy//src/sys/system.h ****             NONE,        // No bootloader present
  90:../../libDaisy//src/sys/system.h ****             v6_0,        // v6.0
  91:../../libDaisy//src/sys/system.h ****             v6_1,        // v6.1 or greater
  92:../../libDaisy//src/sys/system.h ****             LAST
  93:../../libDaisy//src/sys/system.h ****         } version;
  94:../../libDaisy//src/sys/system.h ****     };
  95:../../libDaisy//src/sys/system.h **** 
  96:../../libDaisy//src/sys/system.h ****     System() {}
  97:../../libDaisy//src/sys/system.h ****     ~System() {}
  38              		.loc 2 97 5 view .LVU1
  39              		.loc 2 97 5 is_stmt 0 view .LVU2
  40              	.LBE106:
  41              	.LBB107:
  42              	.LBI107:
  43              		.file 3 "../../libDaisy//src/hid/usb.h"
   1:../../libDaisy//src/hid/usb.h **** #pragma once
   2:../../libDaisy//src/hid/usb.h **** #ifndef DSY_HID_USB_H
   3:../../libDaisy//src/hid/usb.h **** #define DSY_HID_USB_H
   4:../../libDaisy//src/hid/usb.h **** #include <stdint.h>
   5:../../libDaisy//src/hid/usb.h **** #include <stdlib.h>
   6:../../libDaisy//src/hid/usb.h **** 
   7:../../libDaisy//src/hid/usb.h **** namespace daisy
   8:../../libDaisy//src/hid/usb.h **** /** @addtogroup human_interface
   9:../../libDaisy//src/hid/usb.h ****     @{
  10:../../libDaisy//src/hid/usb.h **** */
ARM GAS  C:\Users\Andrew\AppData\Local\Temp\ccOg8wBy.s 			page 4


  11:../../libDaisy//src/hid/usb.h **** 
  12:../../libDaisy//src/hid/usb.h **** {
  13:../../libDaisy//src/hid/usb.h **** /** 
  14:../../libDaisy//src/hid/usb.h ****     @brief Interface for initializing and using the USB Peripherals on the daisy
  15:../../libDaisy//src/hid/usb.h ****     @author Stephen Hensley
  16:../../libDaisy//src/hid/usb.h ****     @date December 2019
  17:../../libDaisy//src/hid/usb.h **** */
  18:../../libDaisy//src/hid/usb.h **** class UsbHandle
  19:../../libDaisy//src/hid/usb.h **** {
  20:../../libDaisy//src/hid/usb.h ****   public:
  21:../../libDaisy//src/hid/usb.h ****     /** Return values for USBHandle Functions */
  22:../../libDaisy//src/hid/usb.h ****     enum class Result
  23:../../libDaisy//src/hid/usb.h ****     {
  24:../../libDaisy//src/hid/usb.h ****         OK,
  25:../../libDaisy//src/hid/usb.h ****         ERR,
  26:../../libDaisy//src/hid/usb.h ****     };
  27:../../libDaisy//src/hid/usb.h **** 
  28:../../libDaisy//src/hid/usb.h ****     /** Specified which of the two USB Peripherals to initialize. */
  29:../../libDaisy//src/hid/usb.h ****     enum UsbPeriph
  30:../../libDaisy//src/hid/usb.h ****     {
  31:../../libDaisy//src/hid/usb.h ****         FS_INTERNAL, /**< Internal pin */
  32:../../libDaisy//src/hid/usb.h ****         FS_EXTERNAL, /**< FS External D+ pin is Pin 38 (GPIO32). FS External D- pin is Pin 37 (GPIO
  33:../../libDaisy//src/hid/usb.h ****         FS_BOTH,     /**< Both */
  34:../../libDaisy//src/hid/usb.h ****     };
  35:../../libDaisy//src/hid/usb.h **** 
  36:../../libDaisy//src/hid/usb.h **** 
  37:../../libDaisy//src/hid/usb.h ****     /** Function called upon reception of a buffer */
  38:../../libDaisy//src/hid/usb.h ****     typedef void (*ReceiveCallback)(uint8_t* buff, uint32_t* len);
  39:../../libDaisy//src/hid/usb.h **** 
  40:../../libDaisy//src/hid/usb.h ****     UsbHandle() {}
  41:../../libDaisy//src/hid/usb.h **** 
  42:../../libDaisy//src/hid/usb.h ****     ~UsbHandle() {}
  44              		.loc 3 42 5 is_stmt 1 view .LVU3
  45              		.loc 3 42 5 is_stmt 0 view .LVU4
  46              	.LBE107:
  47              	.LBB108:
  48              	.LBI108:
  49              		.file 4 "../../libDaisy//src/per/adc.h"
   1:../../libDaisy//src/per/adc.h **** #pragma once
   2:../../libDaisy//src/per/adc.h **** #ifndef DSY_ADC_H
   3:../../libDaisy//src/per/adc.h **** #define DSY_ADC_H /**< Macro */
   4:../../libDaisy//src/per/adc.h **** #include <stdint.h>
   5:../../libDaisy//src/per/adc.h **** #include <stdlib.h>
   6:../../libDaisy//src/per/adc.h **** #include "daisy_core.h"
   7:../../libDaisy//src/per/adc.h **** #include "per/gpio.h"
   8:../../libDaisy//src/per/adc.h **** 
   9:../../libDaisy//src/per/adc.h **** #define DSY_ADC_MAX_CHANNELS 16 /**< Maximum number of ADC channels */
  10:../../libDaisy//src/per/adc.h **** 
  11:../../libDaisy//src/per/adc.h **** namespace daisy
  12:../../libDaisy//src/per/adc.h **** {
  13:../../libDaisy//src/per/adc.h **** /** @addtogroup per_analog
  14:../../libDaisy//src/per/adc.h ****     @{
  15:../../libDaisy//src/per/adc.h **** */
  16:../../libDaisy//src/per/adc.h **** 
  17:../../libDaisy//src/per/adc.h **** /* While there may not be many configuration options here,
  18:../../libDaisy//src/per/adc.h **** using a struct like this allows us to add more configuration
  19:../../libDaisy//src/per/adc.h **** later without breaking existing functionality.
ARM GAS  C:\Users\Andrew\AppData\Local\Temp\ccOg8wBy.s 			page 5


  20:../../libDaisy//src/per/adc.h **** */
  21:../../libDaisy//src/per/adc.h **** 
  22:../../libDaisy//src/per/adc.h **** /** @brief   Configuration Structure for an ADC Channel 
  23:../../libDaisy//src/per/adc.h ****  *  @details This can be used to configure a a single input, 
  24:../../libDaisy//src/per/adc.h ****  *           or a multiplexed input, allowing up to 8 inputs on 
  25:../../libDaisy//src/per/adc.h ****  *           one channel.
  26:../../libDaisy//src/per/adc.h ****  *  @note    Sharing data lines to multiple muxes _is_ possible, but
  27:../../libDaisy//src/per/adc.h ****  *           each channel sharing data lines must be set to the maximum
  28:../../libDaisy//src/per/adc.h ****  *           number of channels, even if some multiplexers have fewer
  29:../../libDaisy//src/per/adc.h ****  *           inputs connected.
  30:../../libDaisy//src/per/adc.h **** */
  31:../../libDaisy//src/per/adc.h **** struct AdcChannelConfig
  32:../../libDaisy//src/per/adc.h **** {
  33:../../libDaisy//src/per/adc.h ****     /** Which pin to use for multiplexing */
  34:../../libDaisy//src/per/adc.h ****     enum MuxPin
  35:../../libDaisy//src/per/adc.h ****     {
  36:../../libDaisy//src/per/adc.h ****         MUX_SEL_0,    /**< & */
  37:../../libDaisy//src/per/adc.h ****         MUX_SEL_1,    /**< & */
  38:../../libDaisy//src/per/adc.h ****         MUX_SEL_2,    /**< & */
  39:../../libDaisy//src/per/adc.h ****         MUX_SEL_LAST, /**< & */
  40:../../libDaisy//src/per/adc.h ****     };
  41:../../libDaisy//src/per/adc.h **** 
  42:../../libDaisy//src/per/adc.h ****     /** \brief per channel conversion speed added to fixed time based on bitdepth, etc. */
  43:../../libDaisy//src/per/adc.h ****     enum ConversionSpeed
  44:../../libDaisy//src/per/adc.h ****     {
  45:../../libDaisy//src/per/adc.h ****         SPEED_1CYCLES_5,
  46:../../libDaisy//src/per/adc.h ****         SPEED_2CYCLES_5,
  47:../../libDaisy//src/per/adc.h ****         SPEED_8CYCLES_5,
  48:../../libDaisy//src/per/adc.h ****         SPEED_16CYCLES_5,
  49:../../libDaisy//src/per/adc.h ****         SPEED_32CYCLES_5,
  50:../../libDaisy//src/per/adc.h ****         SPEED_64CYCLES_5,
  51:../../libDaisy//src/per/adc.h ****         SPEED_387CYCLES_5,
  52:../../libDaisy//src/per/adc.h ****         SPEED_810CYCLES_5,
  53:../../libDaisy//src/per/adc.h ****     };
  54:../../libDaisy//src/per/adc.h **** 
  55:../../libDaisy//src/per/adc.h ****     /** Initializes a single ADC pin as an ADC. 
  56:../../libDaisy//src/per/adc.h ****     \param pin Pin to init.
  57:../../libDaisy//src/per/adc.h ****     \param speed conversion speed for this pin defaults to 8.5 cycles
  58:../../libDaisy//src/per/adc.h ****      */
  59:../../libDaisy//src/per/adc.h ****     void InitSingle(dsy_gpio_pin pin, ConversionSpeed speed = SPEED_8CYCLES_5);
  60:../../libDaisy//src/per/adc.h **** 
  61:../../libDaisy//src/per/adc.h ****     /** 
  62:../../libDaisy//src/per/adc.h ****     Initializes a single ADC pin as a Multiplexed ADC.
  63:../../libDaisy//src/per/adc.h ****     Requires a CD405X Multiplexer connected to the pin.
  64:../../libDaisy//src/per/adc.h ****     You only need to supply the mux pins that are required,
  65:../../libDaisy//src/per/adc.h ****     e.g. a 4052 mux would only require mux_0 and mux_1.
  66:../../libDaisy//src/per/adc.h ****     Internal Callbacks handle the pin addressing.
  67:../../libDaisy//src/per/adc.h ****     \param adc_pin &
  68:../../libDaisy//src/per/adc.h ****     \param mux_channels must be 1-8
  69:../../libDaisy//src/per/adc.h ****     \param mux_0 First mux pin
  70:../../libDaisy//src/per/adc.h ****     \param mux_1 Second mux pin
  71:../../libDaisy//src/per/adc.h ****     \param mux_2 Third mux pin
  72:../../libDaisy//src/per/adc.h ****     \param speed conversion speed for this pin defaults to 8.5 cycles
  73:../../libDaisy//src/per/adc.h ****     */
  74:../../libDaisy//src/per/adc.h ****     void InitMux(dsy_gpio_pin    adc_pin,
  75:../../libDaisy//src/per/adc.h ****                  size_t          mux_channels,
  76:../../libDaisy//src/per/adc.h ****                  dsy_gpio_pin    mux_0,
ARM GAS  C:\Users\Andrew\AppData\Local\Temp\ccOg8wBy.s 			page 6


  77:../../libDaisy//src/per/adc.h ****                  dsy_gpio_pin    mux_1 = {DSY_GPIOX, 0},
  78:../../libDaisy//src/per/adc.h ****                  dsy_gpio_pin    mux_2 = {DSY_GPIOX, 0},
  79:../../libDaisy//src/per/adc.h ****                  ConversionSpeed speed = SPEED_8CYCLES_5);
  80:../../libDaisy//src/per/adc.h **** 
  81:../../libDaisy//src/per/adc.h ****     dsy_gpio        pin_;                   /**< & */
  82:../../libDaisy//src/per/adc.h ****     dsy_gpio        mux_pin_[MUX_SEL_LAST]; /**< & */
  83:../../libDaisy//src/per/adc.h ****     uint8_t         mux_channels_;          /**< & */
  84:../../libDaisy//src/per/adc.h ****     ConversionSpeed speed_;
  85:../../libDaisy//src/per/adc.h **** };
  86:../../libDaisy//src/per/adc.h **** 
  87:../../libDaisy//src/per/adc.h **** /**
  88:../../libDaisy//src/per/adc.h ****    @brief Handler for analog to digital conversion
  89:../../libDaisy//src/per/adc.h **** */
  90:../../libDaisy//src/per/adc.h **** class AdcHandle
  91:../../libDaisy//src/per/adc.h **** {
  92:../../libDaisy//src/per/adc.h ****   public:
  93:../../libDaisy//src/per/adc.h ****     /** Supported oversampling amounts */
  94:../../libDaisy//src/per/adc.h ****     enum OverSampling
  95:../../libDaisy//src/per/adc.h ****     {
  96:../../libDaisy//src/per/adc.h ****         OVS_NONE, /**< & */
  97:../../libDaisy//src/per/adc.h ****         OVS_4,    /**< & */
  98:../../libDaisy//src/per/adc.h ****         OVS_8,    /**< & */
  99:../../libDaisy//src/per/adc.h ****         OVS_16,   /**< & */
 100:../../libDaisy//src/per/adc.h ****         OVS_32,   /**< & */
 101:../../libDaisy//src/per/adc.h ****         OVS_64,   /**< & */
 102:../../libDaisy//src/per/adc.h ****         OVS_128,  /**< & */
 103:../../libDaisy//src/per/adc.h ****         OVS_256,  /**< & */
 104:../../libDaisy//src/per/adc.h ****         OVS_512,  /**< & */
 105:../../libDaisy//src/per/adc.h ****         OVS_1024, /**< & */
 106:../../libDaisy//src/per/adc.h ****         OVS_LAST, /**< & */
 107:../../libDaisy//src/per/adc.h ****     };
 108:../../libDaisy//src/per/adc.h **** 
 109:../../libDaisy//src/per/adc.h ****     AdcHandle() {}
 110:../../libDaisy//src/per/adc.h ****     ~AdcHandle() {}
  50              		.loc 4 110 5 is_stmt 1 view .LVU5
  51              		.loc 4 110 5 is_stmt 0 view .LVU6
  52              	.LBE108:
  53              	.LBB109:
  54              	.LBI109:
  55              		.file 5 "../../libDaisy//src/hid/audio.h"
   1:../../libDaisy//src/hid/audio.h **** #ifndef DSY_AUDIO_H
   2:../../libDaisy//src/hid/audio.h **** #define DSY_AUDIO_H /**< & */
   3:../../libDaisy//src/hid/audio.h **** 
   4:../../libDaisy//src/hid/audio.h **** #include "per/sai.h"
   5:../../libDaisy//src/hid/audio.h **** 
   6:../../libDaisy//src/hid/audio.h **** namespace daisy
   7:../../libDaisy//src/hid/audio.h **** {
   8:../../libDaisy//src/hid/audio.h **** /** @brief Audio Engine Handle
   9:../../libDaisy//src/hid/audio.h ****  *  @ingroup audio 
  10:../../libDaisy//src/hid/audio.h ****  *  @details This class allows for higher level access to an audio engine.
  11:../../libDaisy//src/hid/audio.h ****  *           If you're using a SOM like the DaisySeed or DaisyPatchSM (or any 
  12:../../libDaisy//src/hid/audio.h ****  *            board that includes one of those objects) then the intialization
  13:../../libDaisy//src/hid/audio.h ****  *            is already taken  care of.
  14:../../libDaisy//src/hid/audio.h ****  *           If you're setting up your own custom hardware, or need to make changes
  15:../../libDaisy//src/hid/audio.h ****  *           you will have to take the following steps:
  16:../../libDaisy//src/hid/audio.h ****  *             1. Create and Initialize an SaiHandle or two depending on your requirements
  17:../../libDaisy//src/hid/audio.h ****  *             2. Initialize the Audio Handle with the desired settings and the Initialized SaiHand
ARM GAS  C:\Users\Andrew\AppData\Local\Temp\ccOg8wBy.s 			page 7


  18:../../libDaisy//src/hid/audio.h ****  *             3. If the connected codec requires special configuration or initialization, do so
  19:../../libDaisy//src/hid/audio.h ****  *             4. Write a callback method using either the AudioCallback or the InterleavingAudioCa
  20:../../libDaisy//src/hid/audio.h ****  *             5. Start the Audio using one of the StartAudio function
  21:../../libDaisy//src/hid/audio.h ****  */
  22:../../libDaisy//src/hid/audio.h **** class AudioHandle
  23:../../libDaisy//src/hid/audio.h **** {
  24:../../libDaisy//src/hid/audio.h ****   public:
  25:../../libDaisy//src/hid/audio.h ****     /** Manually configurable details about the Audio Engine */
  26:../../libDaisy//src/hid/audio.h ****     /** TODO: Figure out how to get samplerate in here. */
  27:../../libDaisy//src/hid/audio.h ****     struct Config
  28:../../libDaisy//src/hid/audio.h ****     {
  29:../../libDaisy//src/hid/audio.h ****         /** number of samples to process per callback */
  30:../../libDaisy//src/hid/audio.h ****         size_t blocksize;
  31:../../libDaisy//src/hid/audio.h **** 
  32:../../libDaisy//src/hid/audio.h ****         /**< Sample rate of audio */
  33:../../libDaisy//src/hid/audio.h ****         SaiHandle::Config::SampleRate samplerate;
  34:../../libDaisy//src/hid/audio.h **** 
  35:../../libDaisy//src/hid/audio.h ****         /** factor for adjustment before and after callback for hardware that may have extra headro
  36:../../libDaisy//src/hid/audio.h ****         float postgain;
  37:../../libDaisy//src/hid/audio.h **** 
  38:../../libDaisy//src/hid/audio.h ****         /** factor for additional one-sided compensation to audio path for hardware that may
  39:../../libDaisy//src/hid/audio.h ****          *  have unequal input/output ranges
  40:../../libDaisy//src/hid/audio.h ****          */
  41:../../libDaisy//src/hid/audio.h ****         float output_compensation;
  42:../../libDaisy//src/hid/audio.h **** 
  43:../../libDaisy//src/hid/audio.h ****         /** Sets default values for config struct */
  44:../../libDaisy//src/hid/audio.h ****         Config()
  45:../../libDaisy//src/hid/audio.h ****         : blocksize(48),
  46:../../libDaisy//src/hid/audio.h ****           samplerate(SaiHandle::Config::SampleRate::SAI_48KHZ),
  47:../../libDaisy//src/hid/audio.h ****           postgain(1.f),
  48:../../libDaisy//src/hid/audio.h ****           output_compensation(1.f)
  49:../../libDaisy//src/hid/audio.h ****         {
  50:../../libDaisy//src/hid/audio.h ****         }
  51:../../libDaisy//src/hid/audio.h ****     };
  52:../../libDaisy//src/hid/audio.h **** 
  53:../../libDaisy//src/hid/audio.h ****     enum class Result
  54:../../libDaisy//src/hid/audio.h ****     {
  55:../../libDaisy//src/hid/audio.h ****         OK,
  56:../../libDaisy//src/hid/audio.h ****         ERR,
  57:../../libDaisy//src/hid/audio.h ****     };
  58:../../libDaisy//src/hid/audio.h **** 
  59:../../libDaisy//src/hid/audio.h ****     /** Non-Interleaving input buffer
  60:../../libDaisy//src/hid/audio.h ****      * Buffer arranged by float[chn][sample] 
  61:../../libDaisy//src/hid/audio.h ****      * const so that the user can't modify the input
  62:../../libDaisy//src/hid/audio.h ****      */
  63:../../libDaisy//src/hid/audio.h ****     typedef const float* const* InputBuffer;
  64:../../libDaisy//src/hid/audio.h **** 
  65:../../libDaisy//src/hid/audio.h ****     /** Non-Interleaving output buffer
  66:../../libDaisy//src/hid/audio.h ****      * Arranged by float[chn][sample] 
  67:../../libDaisy//src/hid/audio.h ****      */
  68:../../libDaisy//src/hid/audio.h ****     typedef float** OutputBuffer;
  69:../../libDaisy//src/hid/audio.h **** 
  70:../../libDaisy//src/hid/audio.h ****     /** Type for a Non-Interleaving audio callback 
  71:../../libDaisy//src/hid/audio.h ****      * Non-Interleaving audio callbacks in daisy will be of this type
  72:../../libDaisy//src/hid/audio.h ****      */
  73:../../libDaisy//src/hid/audio.h ****     typedef void (*AudioCallback)(InputBuffer  in,
  74:../../libDaisy//src/hid/audio.h ****                                   OutputBuffer out,
ARM GAS  C:\Users\Andrew\AppData\Local\Temp\ccOg8wBy.s 			page 8


  75:../../libDaisy//src/hid/audio.h ****                                   size_t       size);
  76:../../libDaisy//src/hid/audio.h **** 
  77:../../libDaisy//src/hid/audio.h ****     /** Interleaving Input buffer
  78:../../libDaisy//src/hid/audio.h ****      ** audio is prepared as { L0, R0, L1, R1, . . . LN, RN }]
  79:../../libDaisy//src/hid/audio.h ****      ** this is const, as the user shouldn't modify it
  80:../../libDaisy//src/hid/audio.h ****     */
  81:../../libDaisy//src/hid/audio.h ****     typedef const float* InterleavingInputBuffer;
  82:../../libDaisy//src/hid/audio.h **** 
  83:../../libDaisy//src/hid/audio.h ****     /** Interleaving Output buffer 
  84:../../libDaisy//src/hid/audio.h ****      ** audio is prepared as { L0, R0, L1, R1, . . . LN, RN }
  85:../../libDaisy//src/hid/audio.h ****     */
  86:../../libDaisy//src/hid/audio.h ****     typedef float* InterleavingOutputBuffer;
  87:../../libDaisy//src/hid/audio.h **** 
  88:../../libDaisy//src/hid/audio.h ****     /** Interleaving Audio Callback 
  89:../../libDaisy//src/hid/audio.h ****      * Interleaving audio callbacks in daisy must be of this type
  90:../../libDaisy//src/hid/audio.h ****      */
  91:../../libDaisy//src/hid/audio.h ****     typedef void (*InterleavingAudioCallback)(InterleavingInputBuffer  in,
  92:../../libDaisy//src/hid/audio.h ****                                               InterleavingOutputBuffer out,
  93:../../libDaisy//src/hid/audio.h ****                                               size_t                   size);
  94:../../libDaisy//src/hid/audio.h **** 
  95:../../libDaisy//src/hid/audio.h ****     AudioHandle() : pimpl_(nullptr) {}
  96:../../libDaisy//src/hid/audio.h ****     ~AudioHandle() {}
  56              		.loc 5 96 5 is_stmt 1 view .LVU7
  57              		.loc 5 96 5 is_stmt 0 view .LVU8
  58              	.LBE109:
  59              		.loc 1 22 19 view .LVU9
  60 0000 7047     		bx	lr
  61              		.cfi_endproc
  62              	.LFE2555:
  64              		.weak	_ZN5daisy9DaisySeedD1Ev
  65              		.thumb_set _ZN5daisy9DaisySeedD1Ev,_ZN5daisy9DaisySeedD2Ev
  66 0002 00BF     		.section	.text._Z13AudioCallbackPKPKfPPfj,"ax",%progbits
  67              		.align	1
  68              		.p2align 2,,3
  69              		.global	_Z13AudioCallbackPKPKfPPfj
  70              		.syntax unified
  71              		.thumb
  72              		.thumb_func
  73              		.fpu fpv5-d16
  75              	_Z13AudioCallbackPKPKfPPfj:
  76              	.LVL1:
  77              	.LFB4699:
  78              		.file 6 "digiBassPreamp.cpp"
   1:digiBassPreamp.cpp **** #include "daisy_seed.h"
   2:digiBassPreamp.cpp **** #include "daisysp.h"
   3:digiBassPreamp.cpp **** #include <cmath>
   4:digiBassPreamp.cpp **** 
   5:digiBassPreamp.cpp **** using namespace daisy;
   6:digiBassPreamp.cpp **** using namespace daisy::seed;
   7:digiBassPreamp.cpp **** using namespace daisysp;
   8:digiBassPreamp.cpp **** 
   9:digiBassPreamp.cpp **** // ----------------------
  10:digiBassPreamp.cpp **** // Custom Biquad class
  11:digiBassPreamp.cpp **** // ----------------------
  12:digiBassPreamp.cpp **** struct MyBiquad
  13:digiBassPreamp.cpp **** {
  14:digiBassPreamp.cpp ****     float a0 = 0, a1 = 0, a2 = 0, b1 = 0, b2 = 0;
ARM GAS  C:\Users\Andrew\AppData\Local\Temp\ccOg8wBy.s 			page 9


  15:digiBassPreamp.cpp ****     float z1 = 0, z2 = 0;
  16:digiBassPreamp.cpp **** 
  17:digiBassPreamp.cpp ****     void Init() { z1 = z2 = 0; }
  18:digiBassPreamp.cpp **** 
  19:digiBassPreamp.cpp ****     float Process(float x)
  20:digiBassPreamp.cpp ****     {
  21:digiBassPreamp.cpp ****         float y = a0 * x + a1 * z1 + a2 * z2 - b1 * z1 - b2 * z2;
  22:digiBassPreamp.cpp ****         z2      = z1;
  23:digiBassPreamp.cpp ****         z1      = y;
  24:digiBassPreamp.cpp ****         return y;
  25:digiBassPreamp.cpp ****     }
  26:digiBassPreamp.cpp **** 
  27:digiBassPreamp.cpp ****     void SetCoeffs(float _a0, float _a1, float _a2, float _b1, float _b2)
  28:digiBassPreamp.cpp ****     {
  29:digiBassPreamp.cpp ****         a0 = _a0;
  30:digiBassPreamp.cpp ****         a1 = _a1;
  31:digiBassPreamp.cpp ****         a2 = _a2;
  32:digiBassPreamp.cpp ****         b1 = _b1;
  33:digiBassPreamp.cpp ****         b2 = _b2;
  34:digiBassPreamp.cpp ****     }
  35:digiBassPreamp.cpp **** };
  36:digiBassPreamp.cpp **** 
  37:digiBassPreamp.cpp **** // ----------------------
  38:digiBassPreamp.cpp **** // 3-Band EQ class
  39:digiBassPreamp.cpp **** // ----------------------
  40:digiBassPreamp.cpp **** class EQ3Band
  41:digiBassPreamp.cpp **** {
  42:digiBassPreamp.cpp ****   public:
  43:digiBassPreamp.cpp ****     void Init(float sr)
  44:digiBassPreamp.cpp ****     {
  45:digiBassPreamp.cpp ****         sr_ = sr;
  46:digiBassPreamp.cpp **** 
  47:digiBassPreamp.cpp ****         // Fixed center frequencies
  48:digiBassPreamp.cpp ****         bass_freq_   = 80.0f;
  49:digiBassPreamp.cpp ****         mid_freq_    = 800.0f;
  50:digiBassPreamp.cpp ****         treble_freq_ = 4000.0f;
  51:digiBassPreamp.cpp **** 
  52:digiBassPreamp.cpp ****         // Q factors
  53:digiBassPreamp.cpp ****         bass_q_   = 0.707f;
  54:digiBassPreamp.cpp ****         mid_q_    = 1.0f;
  55:digiBassPreamp.cpp ****         treble_q_ = 0.707f;
  56:digiBassPreamp.cpp **** 
  57:digiBassPreamp.cpp ****         bass.Init();
  58:digiBassPreamp.cpp ****         mid.Init();
  59:digiBassPreamp.cpp ****         treble.Init();
  60:digiBassPreamp.cpp **** 
  61:digiBassPreamp.cpp ****         // Start flat
  62:digiBassPreamp.cpp ****         SetBass(0.5f);
  63:digiBassPreamp.cpp ****         SetMid(0.5f);
  64:digiBassPreamp.cpp ****         SetTreble(0.5f);
  65:digiBassPreamp.cpp ****     }
  66:digiBassPreamp.cpp **** 
  67:digiBassPreamp.cpp ****     float Process(float x)
  68:digiBassPreamp.cpp ****     {
  69:digiBassPreamp.cpp ****         float y = bass.Process(x);
  70:digiBassPreamp.cpp ****         y       = mid.Process(y);
  71:digiBassPreamp.cpp ****         y       = treble.Process(y);
ARM GAS  C:\Users\Andrew\AppData\Local\Temp\ccOg8wBy.s 			page 10


  72:digiBassPreamp.cpp ****         return y;
  73:digiBassPreamp.cpp ****     }
  74:digiBassPreamp.cpp **** 
  75:digiBassPreamp.cpp ****     // Potentiometer input: 0 → 1, CW = boost, CCW = cut
  76:digiBassPreamp.cpp ****     void SetBass(float pot)
  77:digiBassPreamp.cpp ****     {
  78:digiBassPreamp.cpp ****         float db = PotToDb(pot, 15.0f);
  79:digiBassPreamp.cpp ****         SetLowShelf(bass, bass_freq_, bass_q_, db);
  80:digiBassPreamp.cpp ****     }
  81:digiBassPreamp.cpp **** 
  82:digiBassPreamp.cpp ****     void SetMid(float pot)
  83:digiBassPreamp.cpp ****     {
  84:digiBassPreamp.cpp ****         float db = PotToDb(pot, 12.0f);
  85:digiBassPreamp.cpp ****         SetPeak(mid, mid_freq_, mid_q_, db);
  86:digiBassPreamp.cpp ****     }
  87:digiBassPreamp.cpp **** 
  88:digiBassPreamp.cpp ****     void SetTreble(float pot)
  89:digiBassPreamp.cpp ****     {
  90:digiBassPreamp.cpp ****         float db = PotToDb(pot, 15.0f);
  91:digiBassPreamp.cpp ****         SetHighShelf(treble, treble_freq_, treble_q_, db);
  92:digiBassPreamp.cpp ****     }
  93:digiBassPreamp.cpp **** 
  94:digiBassPreamp.cpp ****   private:
  95:digiBassPreamp.cpp ****     float    sr_;
  96:digiBassPreamp.cpp ****     MyBiquad bass, mid, treble;
  97:digiBassPreamp.cpp ****     float    bass_freq_, mid_freq_, treble_freq_;
  98:digiBassPreamp.cpp ****     float    bass_q_, mid_q_, treble_q_;
  99:digiBassPreamp.cpp **** 
 100:digiBassPreamp.cpp ****     float PotToDb(float pot, float maxDb)
 101:digiBassPreamp.cpp ****     {
 102:digiBassPreamp.cpp ****         return (0.5f - pot) * 2.0f * maxDb;
 103:digiBassPreamp.cpp ****     }
 104:digiBassPreamp.cpp **** 
 105:digiBassPreamp.cpp ****     // ----------------------
 106:digiBassPreamp.cpp ****     // RBJ Cookbook Coefficients
 107:digiBassPreamp.cpp ****     // ----------------------
 108:digiBassPreamp.cpp ****     void SetLowShelf(MyBiquad &f, float freq, float Q, float dbGain)
 109:digiBassPreamp.cpp ****     {
 110:digiBassPreamp.cpp ****         float A     = powf(10.0f, dbGain / 40.0f);
 111:digiBassPreamp.cpp ****         float w0    = 2.0f * M_PI * freq / sr_;
 112:digiBassPreamp.cpp ****         float alpha = sinf(w0) / (2.0f * Q);
 113:digiBassPreamp.cpp ****         float cosw0 = cosf(w0);
 114:digiBassPreamp.cpp **** 
 115:digiBassPreamp.cpp ****         float b0 = A * ((A + 1) - (A - 1) * cosw0 + 2 * sqrtf(A) * alpha);
 116:digiBassPreamp.cpp ****         float b1 = 2 * A * ((A - 1) - (A + 1) * cosw0);
 117:digiBassPreamp.cpp ****         float b2 = A * ((A + 1) - (A - 1) * cosw0 - 2 * sqrtf(A) * alpha);
 118:digiBassPreamp.cpp ****         float a0 = (A + 1) + (A - 1) * cosw0 + 2 * sqrtf(A) * alpha;
 119:digiBassPreamp.cpp ****         float a1 = -2 * ((A - 1) + (A + 1) * cosw0);
 120:digiBassPreamp.cpp ****         float a2 = (A + 1) + (A - 1) * cosw0 - 2 * sqrtf(A) * alpha;
 121:digiBassPreamp.cpp **** 
 122:digiBassPreamp.cpp ****         f.SetCoeffs(b0 / a0, b1 / a0, b2 / a0, a1 / a0, a2 / a0);
 123:digiBassPreamp.cpp ****     }
 124:digiBassPreamp.cpp **** 
 125:digiBassPreamp.cpp ****     void SetHighShelf(MyBiquad &f, float freq, float Q, float dbGain)
 126:digiBassPreamp.cpp ****     {
 127:digiBassPreamp.cpp ****         float A     = powf(10.0f, dbGain / 40.0f);
 128:digiBassPreamp.cpp ****         float w0    = 2.0f * M_PI * freq / sr_;
ARM GAS  C:\Users\Andrew\AppData\Local\Temp\ccOg8wBy.s 			page 11


 129:digiBassPreamp.cpp ****         float alpha = sinf(w0) / (2.0f * Q);
 130:digiBassPreamp.cpp ****         float cosw0 = cosf(w0);
 131:digiBassPreamp.cpp **** 
 132:digiBassPreamp.cpp ****         float b0 = A * ((A + 1) + (A - 1) * cosw0 + 2 * sqrtf(A) * alpha);
 133:digiBassPreamp.cpp ****         float b1 = -2 * A * ((A - 1) + (A + 1) * cosw0);
 134:digiBassPreamp.cpp ****         float b2 = A * ((A + 1) + (A - 1) * cosw0 - 2 * sqrtf(A) * alpha);
 135:digiBassPreamp.cpp ****         float a0 = (A + 1) - (A - 1) * cosw0 + 2 * sqrtf(A) * alpha;
 136:digiBassPreamp.cpp ****         float a1 = 2 * ((A - 1) - (A + 1) * cosw0);
 137:digiBassPreamp.cpp ****         float a2 = (A + 1) - (A - 1) * cosw0 - 2 * sqrtf(A) * alpha;
 138:digiBassPreamp.cpp **** 
 139:digiBassPreamp.cpp ****         f.SetCoeffs(b0 / a0, b1 / a0, b2 / a0, a1 / a0, a2 / a0);
 140:digiBassPreamp.cpp ****     }
 141:digiBassPreamp.cpp **** 
 142:digiBassPreamp.cpp ****     void SetPeak(MyBiquad &f, float freq, float Q, float dbGain)
 143:digiBassPreamp.cpp ****     {
 144:digiBassPreamp.cpp ****         float A     = powf(10.0f, dbGain / 40.0f);
 145:digiBassPreamp.cpp ****         float w0    = 2.0f * M_PI * freq / sr_;
 146:digiBassPreamp.cpp ****         float alpha = sinf(w0) / (2.0f * Q);
 147:digiBassPreamp.cpp ****         float cosw0 = cosf(w0);
 148:digiBassPreamp.cpp **** 
 149:digiBassPreamp.cpp ****         float b0 = 1 + alpha * A;
 150:digiBassPreamp.cpp ****         float b1 = -2 * cosw0;
 151:digiBassPreamp.cpp ****         float b2 = 1 - alpha * A;
 152:digiBassPreamp.cpp ****         float a0 = 1 + alpha / A;
 153:digiBassPreamp.cpp ****         float a1 = -2 * cosw0;
 154:digiBassPreamp.cpp ****         float a2 = 1 - alpha / A;
 155:digiBassPreamp.cpp **** 
 156:digiBassPreamp.cpp ****         f.SetCoeffs(b0 / a0, b1 / a0, b2 / a0, a1 / a0, a2 / a0);
 157:digiBassPreamp.cpp ****     }
 158:digiBassPreamp.cpp **** };
 159:digiBassPreamp.cpp **** 
 160:digiBassPreamp.cpp **** // ----------------------
 161:digiBassPreamp.cpp **** // Daisy Seed setup
 162:digiBassPreamp.cpp **** // ----------------------
 163:digiBassPreamp.cpp **** DaisySeed        hw;
 164:digiBassPreamp.cpp **** EQ3Band          eq;
 165:digiBassPreamp.cpp **** AdcChannelConfig adcConfig[3];
 166:digiBassPreamp.cpp **** 
 167:digiBassPreamp.cpp **** // Audio callback
 168:digiBassPreamp.cpp **** void AudioCallback(AudioHandle::InputBuffer  in,
 169:digiBassPreamp.cpp ****                    AudioHandle::OutputBuffer out,
 170:digiBassPreamp.cpp ****                    size_t                    size)
 171:digiBassPreamp.cpp **** {
  79              		.loc 6 171 1 is_stmt 1 view -0
  80              		.cfi_startproc
  81              		@ args = 0, pretend = 0, frame = 0
  82              		@ frame_needed = 0, uses_anonymous_args = 0
  83              		@ link register save eliminated.
 172:digiBassPreamp.cpp ****     for(size_t i = 0; i < size; i++)
  84              		.loc 6 172 5 view .LVU11
  85              	.LBB120:
  86              		.loc 6 172 25 view .LVU12
  87 0000 002A     		cmp	r2, #0
  88 0002 69D0     		beq	.L11
  89 0004 0068     		ldr	r0, [r0]
  90              	.LVL2:
  91              		.loc 6 172 25 is_stmt 0 view .LVU13
ARM GAS  C:\Users\Andrew\AppData\Local\Temp\ccOg8wBy.s 			page 12


  92 0006 354B     		ldr	r3, .L14
  93 0008 00EB8202 		add	r2, r0, r2, lsl #2
  94              	.LVL3:
  95              		.loc 6 172 25 view .LVU14
  96              	.LBE120:
 171:digiBassPreamp.cpp ****     for(size_t i = 0; i < size; i++)
  97              		.loc 6 171 1 view .LVU15
  98 000c 10B4     		push	{r4}
  99              		.cfi_def_cfa_offset 4
 100              		.cfi_offset 4, -4
 101 000e D1E90041 		ldrd	r4, r1, [r1]
 102              	.LVL4:
 171:digiBassPreamp.cpp ****     for(size_t i = 0; i < size; i++)
 103              		.loc 6 171 1 view .LVU16
 104 0012 2DED028B 		vpush.64	{d8}
 105              		.cfi_def_cfa_offset 12
 106              		.cfi_offset 80, -12
 107              		.cfi_offset 81, -8
 108              	.LVL5:
 109              	.L5:
 110              	.LBB165:
 111              	.LBB121:
 173:digiBassPreamp.cpp ****     {
 174:digiBassPreamp.cpp ****         float sig = in[0][i]; // mono input
 112              		.loc 6 174 9 is_stmt 1 discriminator 2 view .LVU17
 113              	.LBB122:
 114              	.LBB123:
 115              	.LBB124:
 116              	.LBB125:
  21:digiBassPreamp.cpp ****         z2      = z1;
 117              		.loc 6 21 33 is_stmt 0 discriminator 2 view .LVU18
 118 0016 93ED065A 		vldr.32	s10, [r3, #24]
  21:digiBassPreamp.cpp ****         z2      = z1;
 119              		.loc 6 21 31 discriminator 2 view .LVU19
 120 001a D3ED026A 		vldr.32	s13, [r3, #8]
 121              	.LBE125:
 122              	.LBE124:
 123              	.LBE123:
 124              	.LBE122:
 125              		.loc 6 174 15 discriminator 2 view .LVU20
 126 001e B0EC017A 		vldmia.32	r0!, {s14}
 127              	.LVL6:
 175:digiBassPreamp.cpp ****         sig       = eq.Process(sig);
 128              		.loc 6 175 9 is_stmt 1 discriminator 2 view .LVU21
 129              	.LBB162:
 130              	.LBI122:
  67:digiBassPreamp.cpp ****     {
 131              		.loc 6 67 11 discriminator 2 view .LVU22
 132              	.LBB160:
  69:digiBassPreamp.cpp ****         y       = mid.Process(y);
 133              		.loc 6 69 9 discriminator 2 view .LVU23
 134              	.LBB132:
 135              	.LBI124:
  19:digiBassPreamp.cpp ****     {
 136              		.loc 6 19 11 discriminator 2 view .LVU24
 137              	.LBB126:
  21:digiBassPreamp.cpp ****         z2      = z1;
ARM GAS  C:\Users\Andrew\AppData\Local\Temp\ccOg8wBy.s 			page 13


 138              		.loc 6 21 9 discriminator 2 view .LVU25
  21:digiBassPreamp.cpp ****         z2      = z1;
 139              		.loc 6 21 31 is_stmt 0 discriminator 2 view .LVU26
 140 0022 65EE266A 		vmul.f32	s13, s10, s13
  21:digiBassPreamp.cpp ****         z2      = z1;
 141              		.loc 6 21 26 discriminator 2 view .LVU27
 142 0026 D3ED017A 		vldr.32	s15, [r3, #4]
  21:digiBassPreamp.cpp ****         z2      = z1;
 143              		.loc 6 21 43 discriminator 2 view .LVU28
 144 002a D3ED073A 		vldr.32	s7, [r3, #28]
 145              	.LBE126:
 146              	.LBE132:
 147              	.LBE160:
 148              	.LBE162:
 149              	.LBE121:
 172:digiBassPreamp.cpp ****     {
 150              		.loc 6 172 25 discriminator 2 view .LVU29
 151 002e 8242     		cmp	r2, r0
 152              	.LBB164:
 153              	.LBB163:
 154              	.LBB161:
 155              	.LBB133:
 156              	.LBB127:
  21:digiBassPreamp.cpp ****         z2      = z1;
 157              		.loc 6 21 36 discriminator 2 view .LVU30
 158 0030 93ED033A 		vldr.32	s6, [r3, #12]
  21:digiBassPreamp.cpp ****         z2      = z1;
 159              		.loc 6 21 26 discriminator 2 view .LVU31
 160 0034 E7EE276A 		vfma.f32	s13, s14, s15
  21:digiBassPreamp.cpp ****         z2      = z1;
 161              		.loc 6 21 46 discriminator 2 view .LVU32
 162 0038 93ED048A 		vldr.32	s16, [r3, #16]
  22:digiBassPreamp.cpp ****         z1      = y;
 163              		.loc 6 22 17 discriminator 2 view .LVU33
 164 003c 83ED075A 		vstr.32	s10, [r3, #28]
 165              	.LBE127:
 166              	.LBE133:
 167              	.LBB134:
 168              	.LBB135:
  21:digiBassPreamp.cpp ****         z2      = z1;
 169              		.loc 6 21 33 discriminator 2 view .LVU34
 170 0040 D3ED0D5A 		vldr.32	s11, [r3, #52]
  21:digiBassPreamp.cpp ****         z2      = z1;
 171              		.loc 6 21 31 discriminator 2 view .LVU35
 172 0044 93ED097A 		vldr.32	s14, [r3, #36]
 173              	.LVL7:
  21:digiBassPreamp.cpp ****         z2      = z1;
 174              		.loc 6 21 43 discriminator 2 view .LVU36
 175 0048 93ED0E4A 		vldr.32	s8, [r3, #56]
  21:digiBassPreamp.cpp ****         z2      = z1;
 176              		.loc 6 21 31 discriminator 2 view .LVU37
 177 004c 25EE877A 		vmul.f32	s14, s11, s14
  21:digiBassPreamp.cpp ****         z2      = z1;
 178              		.loc 6 21 36 discriminator 2 view .LVU38
 179 0050 93ED0A0A 		vldr.32	s0, [r3, #40]
 180              	.LBE135:
 181              	.LBE134:
ARM GAS  C:\Users\Andrew\AppData\Local\Temp\ccOg8wBy.s 			page 14


 182              	.LBB141:
 183              	.LBB128:
 184 0054 E3EE236A 		vfma.f32	s13, s6, s7
 185              	.LBE128:
 186              	.LBE141:
 187              	.LBB142:
 188              	.LBB136:
  21:digiBassPreamp.cpp ****         z2      = z1;
 189              		.loc 6 21 46 discriminator 2 view .LVU39
 190 0058 D3ED0B0A 		vldr.32	s1, [r3, #44]
  21:digiBassPreamp.cpp ****         z2      = z1;
 191              		.loc 6 21 15 discriminator 2 view .LVU40
 192 005c 93ED0C1A 		vldr.32	s2, [r3, #48]
 193              	.LBE136:
 194              	.LBE142:
 195              	.LBB143:
 196              	.LBB144:
  21:digiBassPreamp.cpp ****         z2      = z1;
 197              		.loc 6 21 33 discriminator 2 view .LVU41
 198 0060 93ED146A 		vldr.32	s12, [r3, #80]
  21:digiBassPreamp.cpp ****         z2      = z1;
 199              		.loc 6 21 31 discriminator 2 view .LVU42
 200 0064 D3ED107A 		vldr.32	s15, [r3, #64]
  21:digiBassPreamp.cpp ****         z2      = z1;
 201              		.loc 6 21 26 discriminator 2 view .LVU43
 202 0068 D3ED0F1A 		vldr.32	s3, [r3, #60]
  21:digiBassPreamp.cpp ****         z2      = z1;
 203              		.loc 6 21 31 discriminator 2 view .LVU44
 204 006c 66EE277A 		vmul.f32	s15, s12, s15
  21:digiBassPreamp.cpp ****         z2      = z1;
 205              		.loc 6 21 43 discriminator 2 view .LVU45
 206 0070 D3ED154A 		vldr.32	s9, [r3, #84]
 207              	.LBE144:
 208              	.LBE143:
 209              	.LBB149:
 210              	.LBB129:
  21:digiBassPreamp.cpp ****         z2      = z1;
 211              		.loc 6 21 46 discriminator 2 view .LVU46
 212 0074 E5EE486A 		vfms.f32	s13, s10, s16
  21:digiBassPreamp.cpp ****         z2      = z1;
 213              		.loc 6 21 15 discriminator 2 view .LVU47
 214 0078 93ED055A 		vldr.32	s10, [r3, #20]
 215              	.LBE129:
 216              	.LBE149:
 217              	.LBB150:
 218              	.LBB145:
  21:digiBassPreamp.cpp ****         z2      = z1;
 219              		.loc 6 21 36 discriminator 2 view .LVU48
 220 007c 93ED112A 		vldr.32	s4, [r3, #68]
  21:digiBassPreamp.cpp ****         z2      = z1;
 221              		.loc 6 21 46 discriminator 2 view .LVU49
 222 0080 D3ED122A 		vldr.32	s5, [r3, #72]
  21:digiBassPreamp.cpp ****         z2      = z1;
 223              		.loc 6 21 15 discriminator 2 view .LVU50
 224 0084 93ED133A 		vldr.32	s6, [r3, #76]
 225              	.LBE145:
 226              	.LBE150:
ARM GAS  C:\Users\Andrew\AppData\Local\Temp\ccOg8wBy.s 			page 15


 227              	.LBB151:
 228              	.LBB137:
  22:digiBassPreamp.cpp ****         z1      = y;
 229              		.loc 6 22 17 discriminator 2 view .LVU51
 230 0088 C3ED0E5A 		vstr.32	s11, [r3, #56]
 231              	.LBE137:
 232              	.LBE151:
 233              	.LBB152:
 234              	.LBB146:
 235 008c 83ED156A 		vstr.32	s12, [r3, #84]
 236              	.LBE146:
 237              	.LBE152:
 238              	.LBB153:
 239              	.LBB130:
  21:digiBassPreamp.cpp ****         z2      = z1;
 240              		.loc 6 21 15 discriminator 2 view .LVU52
 241 0090 E3EEC56A 		vfms.f32	s13, s7, s10
 242              	.LVL8:
  22:digiBassPreamp.cpp ****         z1      = y;
 243              		.loc 6 22 9 is_stmt 1 discriminator 2 view .LVU53
  23:digiBassPreamp.cpp ****         return y;
 244              		.loc 6 23 9 discriminator 2 view .LVU54
 245              	.LBE130:
 246              	.LBE153:
 247              	.LBB154:
 248              	.LBB138:
  21:digiBassPreamp.cpp ****         z2      = z1;
 249              		.loc 6 21 26 is_stmt 0 discriminator 2 view .LVU55
 250 0094 93ED085A 		vldr.32	s10, [r3, #32]
 251 0098 A5EE267A 		vfma.f32	s14, s10, s13
 252              	.LBE138:
 253              	.LBE154:
 254              	.LBB155:
 255              	.LBB131:
  23:digiBassPreamp.cpp ****         return y;
 256              		.loc 6 23 17 discriminator 2 view .LVU56
 257 009c C3ED066A 		vstr.32	s13, [r3, #24]
  24:digiBassPreamp.cpp ****     }
 258              		.loc 6 24 9 is_stmt 1 discriminator 2 view .LVU57
 259              	.LVL9:
  24:digiBassPreamp.cpp ****     }
 260              		.loc 6 24 9 is_stmt 0 discriminator 2 view .LVU58
 261              	.LBE131:
 262              	.LBE155:
  70:digiBassPreamp.cpp ****         y       = treble.Process(y);
 263              		.loc 6 70 9 is_stmt 1 discriminator 2 view .LVU59
 264              	.LBB156:
 265              	.LBI134:
  19:digiBassPreamp.cpp ****     {
 266              		.loc 6 19 11 discriminator 2 view .LVU60
 267              	.LBB139:
  21:digiBassPreamp.cpp ****         z2      = z1;
 268              		.loc 6 21 9 discriminator 2 view .LVU61
  21:digiBassPreamp.cpp ****         z2      = z1;
 269              		.loc 6 21 36 is_stmt 0 discriminator 2 view .LVU62
 270 00a0 A0EE047A 		vfma.f32	s14, s0, s8
  21:digiBassPreamp.cpp ****         z2      = z1;
ARM GAS  C:\Users\Andrew\AppData\Local\Temp\ccOg8wBy.s 			page 16


 271              		.loc 6 21 46 discriminator 2 view .LVU63
 272 00a4 A5EEE07A 		vfms.f32	s14, s11, s1
  21:digiBassPreamp.cpp ****         z2      = z1;
 273              		.loc 6 21 15 discriminator 2 view .LVU64
 274 00a8 A4EE417A 		vfms.f32	s14, s8, s2
 275              	.LVL10:
  22:digiBassPreamp.cpp ****         z1      = y;
 276              		.loc 6 22 9 is_stmt 1 discriminator 2 view .LVU65
  23:digiBassPreamp.cpp ****         return y;
 277              		.loc 6 23 9 discriminator 2 view .LVU66
 278              	.LBE139:
 279              	.LBE156:
 280              	.LBB157:
 281              	.LBB147:
  21:digiBassPreamp.cpp ****         z2      = z1;
 282              		.loc 6 21 26 is_stmt 0 discriminator 2 view .LVU67
 283 00ac E1EE877A 		vfma.f32	s15, s3, s14
 284              	.LBE147:
 285              	.LBE157:
 286              	.LBB158:
 287              	.LBB140:
  23:digiBassPreamp.cpp ****         return y;
 288              		.loc 6 23 17 discriminator 2 view .LVU68
 289 00b0 83ED0D7A 		vstr.32	s14, [r3, #52]
  24:digiBassPreamp.cpp ****     }
 290              		.loc 6 24 9 is_stmt 1 discriminator 2 view .LVU69
 291              	.LVL11:
  24:digiBassPreamp.cpp ****     }
 292              		.loc 6 24 9 is_stmt 0 discriminator 2 view .LVU70
 293              	.LBE140:
 294              	.LBE158:
  71:digiBassPreamp.cpp ****         return y;
 295              		.loc 6 71 9 is_stmt 1 discriminator 2 view .LVU71
 296              	.LBB159:
 297              	.LBI143:
  19:digiBassPreamp.cpp ****     {
 298              		.loc 6 19 11 discriminator 2 view .LVU72
 299              	.LBB148:
  21:digiBassPreamp.cpp ****         z2      = z1;
 300              		.loc 6 21 9 discriminator 2 view .LVU73
  21:digiBassPreamp.cpp ****         z2      = z1;
 301              		.loc 6 21 36 is_stmt 0 discriminator 2 view .LVU74
 302 00b4 E2EE247A 		vfma.f32	s15, s4, s9
  21:digiBassPreamp.cpp ****         z2      = z1;
 303              		.loc 6 21 46 discriminator 2 view .LVU75
 304 00b8 E6EE627A 		vfms.f32	s15, s12, s5
  21:digiBassPreamp.cpp ****         z2      = z1;
 305              		.loc 6 21 15 discriminator 2 view .LVU76
 306 00bc E4EEC37A 		vfms.f32	s15, s9, s6
 307              	.LVL12:
  22:digiBassPreamp.cpp ****         z1      = y;
 308              		.loc 6 22 9 is_stmt 1 discriminator 2 view .LVU77
  23:digiBassPreamp.cpp ****         return y;
 309              		.loc 6 23 9 discriminator 2 view .LVU78
  23:digiBassPreamp.cpp ****         return y;
 310              		.loc 6 23 17 is_stmt 0 discriminator 2 view .LVU79
 311 00c0 C3ED147A 		vstr.32	s15, [r3, #80]
ARM GAS  C:\Users\Andrew\AppData\Local\Temp\ccOg8wBy.s 			page 17


  24:digiBassPreamp.cpp ****     }
 312              		.loc 6 24 9 is_stmt 1 discriminator 2 view .LVU80
 313              	.LVL13:
  24:digiBassPreamp.cpp ****     }
 314              		.loc 6 24 9 is_stmt 0 discriminator 2 view .LVU81
 315              	.LBE148:
 316              	.LBE159:
  72:digiBassPreamp.cpp ****     }
 317              		.loc 6 72 9 is_stmt 1 discriminator 2 view .LVU82
  72:digiBassPreamp.cpp ****     }
 318              		.loc 6 72 9 is_stmt 0 discriminator 2 view .LVU83
 319              	.LBE161:
 320              	.LBE163:
 176:digiBassPreamp.cpp ****         out[0][i] = sig; // left
 321              		.loc 6 176 9 is_stmt 1 discriminator 2 view .LVU84
 322              		.loc 6 176 19 is_stmt 0 discriminator 2 view .LVU85
 323 00c4 E4EC017A 		vstmia.32	r4!, {s15}
 177:digiBassPreamp.cpp ****         out[1][i] = sig; // right
 324              		.loc 6 177 9 is_stmt 1 discriminator 2 view .LVU86
 325              		.loc 6 177 19 is_stmt 0 discriminator 2 view .LVU87
 326 00c8 E1EC017A 		vstmia.32	r1!, {s15}
 327              	.LBE164:
 172:digiBassPreamp.cpp ****     {
 328              		.loc 6 172 5 is_stmt 1 discriminator 2 view .LVU88
 172:digiBassPreamp.cpp ****     {
 329              		.loc 6 172 25 discriminator 2 view .LVU89
 330 00cc A3D1     		bne	.L5
 331              	.LBE165:
 178:digiBassPreamp.cpp ****     }
 179:digiBassPreamp.cpp **** }
 332              		.loc 6 179 1 is_stmt 0 view .LVU90
 333 00ce BDEC028B 		vldm	sp!, {d8}
 334              		.cfi_restore 80
 335              		.cfi_restore 81
 336              		.cfi_def_cfa_offset 4
 337 00d2 5DF8044B 		ldr	r4, [sp], #4
 338              		.cfi_restore 4
 339              		.cfi_def_cfa_offset 0
 340 00d6 7047     		bx	lr
 341              	.LVL14:
 342              	.L11:
 343              		.loc 6 179 1 view .LVU91
 344 00d8 7047     		bx	lr
 345              	.L15:
 346 00da 00BF     		.align	2
 347              	.L14:
 348 00dc 00000000 		.word	.LANCHOR0
 349              		.cfi_endproc
 350              	.LFE4699:
 352              		.section	.rodata.main.str1.4,"aMS",%progbits,1
 353              		.align	2
 354              	.LC1:
 355 0000 41444320 		.ascii	"ADC Value: %d\000"
 355      56616C75 
 355      653A2025 
 355      6400
 356 000e 0000     		.align	2
ARM GAS  C:\Users\Andrew\AppData\Local\Temp\ccOg8wBy.s 			page 18


 357              	.LC2:
 358 0010 41444320 		.ascii	"ADC Float: %d\000"
 358      466C6F61 
 358      743A2025 
 358      6400
 359              		.section	.text.startup.main,"ax",%progbits
 360              		.align	1
 361              		.p2align 2,,3
 362              		.global	main
 363              		.syntax unified
 364              		.thumb
 365              		.thumb_func
 366              		.fpu fpv5-d16
 368              	main:
 369              	.LFB4700:
 180:digiBassPreamp.cpp **** 
 181:digiBassPreamp.cpp **** int main(void)
 182:digiBassPreamp.cpp **** {
 370              		.loc 6 182 1 is_stmt 1 view -0
 371              		.cfi_startproc
 372              		@ args = 0, pretend = 0, frame = 16
 373              		@ frame_needed = 0, uses_anonymous_args = 0
 183:digiBassPreamp.cpp ****     hw.Init();
 374              		.loc 6 183 5 view .LVU93
 375              		.loc 6 183 12 is_stmt 0 view .LVU94
 376 0000 0021     		movs	r1, #0
 377 0002 9148     		ldr	r0, .L30+24
 182:digiBassPreamp.cpp ****     hw.Init();
 378              		.loc 6 182 1 view .LVU95
 379 0004 70B5     		push	{r4, r5, r6, lr}
 380              		.cfi_def_cfa_offset 16
 381              		.cfi_offset 4, -16
 382              		.cfi_offset 5, -12
 383              		.cfi_offset 6, -8
 384              		.cfi_offset 14, -4
 184:digiBassPreamp.cpp ****     hw.StartLog();
 185:digiBassPreamp.cpp **** 
 186:digiBassPreamp.cpp ****     adcConfig[0].InitSingle(A0);
 385              		.loc 6 186 28 view .LVU96
 386 0006 0E46     		mov	r6, r1
 387 0008 0224     		movs	r4, #2
 187:digiBassPreamp.cpp ****     adcConfig[1].InitSingle(A1);
 388              		.loc 6 187 28 view .LVU97
 389 000a 0325     		movs	r5, #3
 182:digiBassPreamp.cpp ****     hw.Init();
 390              		.loc 6 182 1 view .LVU98
 391 000c 2DED0C8B 		vpush.64	{d8, d9, d10, d11, d12, d13}
 392              		.cfi_def_cfa_offset 64
 393              		.cfi_offset 80, -64
 394              		.cfi_offset 81, -60
 395              		.cfi_offset 82, -56
 396              		.cfi_offset 83, -52
 397              		.cfi_offset 84, -48
 398              		.cfi_offset 85, -44
 399              		.cfi_offset 86, -40
 400              		.cfi_offset 87, -36
 401              		.cfi_offset 88, -32
ARM GAS  C:\Users\Andrew\AppData\Local\Temp\ccOg8wBy.s 			page 19


 402              		.cfi_offset 89, -28
 403              		.cfi_offset 90, -24
 404              		.cfi_offset 91, -20
 405 0010 84B0     		sub	sp, sp, #16
 406              		.cfi_def_cfa_offset 80
 407              	.LBB229:
 408              	.LBB230:
 409              	.LBB231:
 410              	.LBB232:
  17:digiBassPreamp.cpp **** 
 411              		.loc 6 17 27 view .LVU99
 412 0012 9FED8E8A 		vldr.32	s16, .L30+28
 413              	.LBE232:
 414              	.LBE231:
 415              	.LBE230:
 416              	.LBE229:
 183:digiBassPreamp.cpp ****     hw.StartLog();
 417              		.loc 6 183 12 view .LVU100
 418 0016 FFF7FEFF 		bl	_ZN5daisy9DaisySeed4InitEb
 419              	.LVL15:
 184:digiBassPreamp.cpp **** 
 420              		.loc 6 184 5 is_stmt 1 view .LVU101
 421              	.LBB348:
 422              	.LBI348:
  23:../../libDaisy//src/daisy_seed.h **** 
  24:../../libDaisy//src/daisy_seed.h ****     /** This function used to provide a pre-initialization configuraiton 
  25:../../libDaisy//src/daisy_seed.h ****      *  it has since been deprecated, and does nothing.
  26:../../libDaisy//src/daisy_seed.h ****      */
  27:../../libDaisy//src/daisy_seed.h ****     void Configure();
  28:../../libDaisy//src/daisy_seed.h **** 
  29:../../libDaisy//src/daisy_seed.h ****     /** 
  30:../../libDaisy//src/daisy_seed.h ****     Initializes the Daisy Seed and the following peripherals:
  31:../../libDaisy//src/daisy_seed.h ****     SDRAM, QSPI, 24-bit 48kHz Audio via AK4556, Internal USB,
  32:../../libDaisy//src/daisy_seed.h ****     as well as the built-in LED and Testpoint.
  33:../../libDaisy//src/daisy_seed.h **** 
  34:../../libDaisy//src/daisy_seed.h ****     ADCs, DACs, and other special peripherals (such as I2C, SPI, etc.)
  35:../../libDaisy//src/daisy_seed.h ****     can be initialized using their specific initializers within libdaisy
  36:../../libDaisy//src/daisy_seed.h ****     for a specific application.
  37:../../libDaisy//src/daisy_seed.h ****     */
  38:../../libDaisy//src/daisy_seed.h ****     void Init(bool boost = false);
  39:../../libDaisy//src/daisy_seed.h **** 
  40:../../libDaisy//src/daisy_seed.h ****     /** 
  41:../../libDaisy//src/daisy_seed.h ****     Deinitializes all peripherals automatically handled by `Init`.
  42:../../libDaisy//src/daisy_seed.h ****     */
  43:../../libDaisy//src/daisy_seed.h ****     void DeInit();
  44:../../libDaisy//src/daisy_seed.h **** 
  45:../../libDaisy//src/daisy_seed.h ****     /** 
  46:../../libDaisy//src/daisy_seed.h ****     Wait some ms before going on.
  47:../../libDaisy//src/daisy_seed.h ****     \param del Delay time in ms.
  48:../../libDaisy//src/daisy_seed.h ****     */
  49:../../libDaisy//src/daisy_seed.h ****     void DelayMs(size_t del);
  50:../../libDaisy//src/daisy_seed.h **** 
  51:../../libDaisy//src/daisy_seed.h ****     /** 
  52:../../libDaisy//src/daisy_seed.h ****     Returns the gpio_pin corresponding to the index 0-31.
  53:../../libDaisy//src/daisy_seed.h ****     For the given GPIO on the Daisy Seed (labeled 1-32 in docs).
  54:../../libDaisy//src/daisy_seed.h ****     */
  55:../../libDaisy//src/daisy_seed.h ****     static dsy_gpio_pin GetPin(uint8_t pin_idx);
ARM GAS  C:\Users\Andrew\AppData\Local\Temp\ccOg8wBy.s 			page 20


  56:../../libDaisy//src/daisy_seed.h **** 
  57:../../libDaisy//src/daisy_seed.h ****     /** Begins the audio for the seeds builtin audio.
  58:../../libDaisy//src/daisy_seed.h ****     the specified callback will get called whenever
  59:../../libDaisy//src/daisy_seed.h ****     new data is ready to be prepared.
  60:../../libDaisy//src/daisy_seed.h ****     */
  61:../../libDaisy//src/daisy_seed.h ****     void StartAudio(AudioHandle::InterleavingAudioCallback cb);
  62:../../libDaisy//src/daisy_seed.h **** 
  63:../../libDaisy//src/daisy_seed.h ****     /** Begins the audio for the seeds builtin audio.
  64:../../libDaisy//src/daisy_seed.h ****     the specified callback will get called whenever
  65:../../libDaisy//src/daisy_seed.h ****     new data is ready to be prepared.
  66:../../libDaisy//src/daisy_seed.h ****     This will use the newer non-interleaved callback.
  67:../../libDaisy//src/daisy_seed.h ****     */
  68:../../libDaisy//src/daisy_seed.h ****     void StartAudio(AudioHandle::AudioCallback cb);
  69:../../libDaisy//src/daisy_seed.h **** 
  70:../../libDaisy//src/daisy_seed.h ****     /** Changes to a new interleaved callback
  71:../../libDaisy//src/daisy_seed.h ****      */
  72:../../libDaisy//src/daisy_seed.h ****     void ChangeAudioCallback(AudioHandle::InterleavingAudioCallback cb);
  73:../../libDaisy//src/daisy_seed.h **** 
  74:../../libDaisy//src/daisy_seed.h ****     /** Changes to a new multichannel callback
  75:../../libDaisy//src/daisy_seed.h ****      */
  76:../../libDaisy//src/daisy_seed.h ****     void ChangeAudioCallback(AudioHandle::AudioCallback cb);
  77:../../libDaisy//src/daisy_seed.h **** 
  78:../../libDaisy//src/daisy_seed.h ****     /** Stops the audio if it is running. */
  79:../../libDaisy//src/daisy_seed.h ****     void StopAudio();
  80:../../libDaisy//src/daisy_seed.h **** 
  81:../../libDaisy//src/daisy_seed.h ****     /** Updates the Audio Sample Rate, and reinitializes.
  82:../../libDaisy//src/daisy_seed.h ****      ** Audio must be stopped for this to work.
  83:../../libDaisy//src/daisy_seed.h ****      */
  84:../../libDaisy//src/daisy_seed.h ****     void SetAudioSampleRate(SaiHandle::Config::SampleRate samplerate);
  85:../../libDaisy//src/daisy_seed.h **** 
  86:../../libDaisy//src/daisy_seed.h ****     /** Returns the audio sample rate in Hz as a floating point number.
  87:../../libDaisy//src/daisy_seed.h ****      */
  88:../../libDaisy//src/daisy_seed.h ****     float AudioSampleRate();
  89:../../libDaisy//src/daisy_seed.h **** 
  90:../../libDaisy//src/daisy_seed.h ****     /** Sets the number of samples processed per channel by the audio callback.
  91:../../libDaisy//src/daisy_seed.h ****      */
  92:../../libDaisy//src/daisy_seed.h ****     void SetAudioBlockSize(size_t blocksize);
  93:../../libDaisy//src/daisy_seed.h **** 
  94:../../libDaisy//src/daisy_seed.h ****     /** Returns the number of samples per channel in a block of audio. */
  95:../../libDaisy//src/daisy_seed.h ****     size_t AudioBlockSize();
  96:../../libDaisy//src/daisy_seed.h **** 
  97:../../libDaisy//src/daisy_seed.h ****     /** Returns the rate in Hz that the Audio callback is called */
  98:../../libDaisy//src/daisy_seed.h ****     float AudioCallbackRate() const;
  99:../../libDaisy//src/daisy_seed.h **** 
 100:../../libDaisy//src/daisy_seed.h ****     /** Returns the SAI Handle for the Daisy Seed 
 101:../../libDaisy//src/daisy_seed.h ****      *  This can be useful when adding a secondary codec,
 102:../../libDaisy//src/daisy_seed.h ****      *  the result of this function can be passed to the audio reinit 
 103:../../libDaisy//src/daisy_seed.h ****      *  with an SAI2 configuration
 104:../../libDaisy//src/daisy_seed.h ****      */
 105:../../libDaisy//src/daisy_seed.h ****     const SaiHandle& AudioSaiHandle() const;
 106:../../libDaisy//src/daisy_seed.h **** 
 107:../../libDaisy//src/daisy_seed.h ****     /** Sets the state of the built in LED
 108:../../libDaisy//src/daisy_seed.h ****      */
 109:../../libDaisy//src/daisy_seed.h ****     void SetLed(bool state);
 110:../../libDaisy//src/daisy_seed.h **** 
 111:../../libDaisy//src/daisy_seed.h ****     /** Sets the state of the test point near pin 10
 112:../../libDaisy//src/daisy_seed.h ****      */
ARM GAS  C:\Users\Andrew\AppData\Local\Temp\ccOg8wBy.s 			page 21


 113:../../libDaisy//src/daisy_seed.h ****     void SetTestPoint(bool state);
 114:../../libDaisy//src/daisy_seed.h **** 
 115:../../libDaisy//src/daisy_seed.h ****     /** Print formatted debug log message
 116:../../libDaisy//src/daisy_seed.h ****      */
 117:../../libDaisy//src/daisy_seed.h ****     template <typename... VA>
 118:../../libDaisy//src/daisy_seed.h ****     static void Print(const char* format, VA... va)
 119:../../libDaisy//src/daisy_seed.h ****     {
 120:../../libDaisy//src/daisy_seed.h ****         Log::Print(format, va...);
 121:../../libDaisy//src/daisy_seed.h ****     }
 122:../../libDaisy//src/daisy_seed.h **** 
 123:../../libDaisy//src/daisy_seed.h ****     /** Print formatted debug log message with automatic line termination
 124:../../libDaisy//src/daisy_seed.h ****     */
 125:../../libDaisy//src/daisy_seed.h ****     template <typename... VA>
 126:../../libDaisy//src/daisy_seed.h ****     static void PrintLine(const char* format, VA... va)
 127:../../libDaisy//src/daisy_seed.h ****     {
 128:../../libDaisy//src/daisy_seed.h ****         Log::PrintLine(format, va...);
 129:../../libDaisy//src/daisy_seed.h ****     }
 130:../../libDaisy//src/daisy_seed.h **** 
 131:../../libDaisy//src/daisy_seed.h ****     /** Start the logging session. Optionally wait for terminal connection before proceeding.
 132:../../libDaisy//src/daisy_seed.h ****     */
 133:../../libDaisy//src/daisy_seed.h ****     static void StartLog(bool wait_for_pc = false)
 423              		.loc 1 133 17 view .LVU102
 424              	.LBB349:
 134:../../libDaisy//src/daisy_seed.h ****     {
 135:../../libDaisy//src/daisy_seed.h ****         Log::StartLog(wait_for_pc);
 425              		.loc 1 135 9 view .LVU103
 426              		.loc 1 135 22 is_stmt 0 view .LVU104
 427 001a 3046     		mov	r0, r6
 428 001c FFF7FEFF 		bl	_ZN5daisy6LoggerILNS_17LoggerDestinationE1EE8StartLogEb
 429              	.LVL16:
 430              		.loc 1 135 22 view .LVU105
 431              	.LBE349:
 432              	.LBE348:
 186:digiBassPreamp.cpp ****     adcConfig[1].InitSingle(A1);
 433              		.loc 6 186 5 is_stmt 1 view .LVU106
 186:digiBassPreamp.cpp ****     adcConfig[1].InitSingle(A1);
 434              		.loc 6 186 28 is_stmt 0 view .LVU107
 435 0020 8DF80440 		strb	r4, [sp, #4]
 436 0024 8DF80560 		strb	r6, [sp, #5]
 437 0028 2246     		mov	r2, r4
 438 002a 0199     		ldr	r1, [sp, #4]
 439              	.LBB350:
 440              	.LBB339:
  54:digiBassPreamp.cpp ****         treble_q_ = 0.707f;
 441              		.loc 6 54 19 view .LVU108
 442 002c B7EE009A 		vmov.f32	s18, #1.0e+0
 443              	.LBE339:
 444              	.LBE350:
 186:digiBassPreamp.cpp ****     adcConfig[1].InitSingle(A1);
 445              		.loc 6 186 28 view .LVU109
 446 0030 8748     		ldr	r0, .L30+32
 447              	.LBB351:
 448              	.LBB340:
 449              	.LBB235:
 450              	.LBB236:
 451              	.LBB237:
 452              	.LBB238:
ARM GAS  C:\Users\Andrew\AppData\Local\Temp\ccOg8wBy.s 			page 22


 115:digiBassPreamp.cpp ****         float b1 = 2 * A * ((A - 1) - (A + 1) * cosw0);
 453              		.loc 6 115 33 view .LVU110
 454 0032 F0EE008A 		vmov.f32	s17, #2.0e+0
 455              	.LBE238:
 456              	.LBE237:
 457              	.LBE236:
 458              	.LBE235:
 459              	.LBE340:
 460              	.LBE351:
 186:digiBassPreamp.cpp ****     adcConfig[1].InitSingle(A1);
 461              		.loc 6 186 28 view .LVU111
 462 0036 FFF7FEFF 		bl	_ZN5daisy16AdcChannelConfig10InitSingleE12dsy_gpio_pinNS0_15ConversionSpeedE
 463              	.LVL17:
 464              		.loc 6 187 5 is_stmt 1 view .LVU112
 465              		.loc 6 187 28 is_stmt 0 view .LVU113
 466 003a 8DF80860 		strb	r6, [sp, #8]
 467 003e 8DF80950 		strb	r5, [sp, #9]
 468 0042 2246     		mov	r2, r4
 469 0044 0299     		ldr	r1, [sp, #8]
 470              	.LBB352:
 471              	.LBB341:
 472              	.LBB271:
 473              	.LBB263:
 474              	.LBB256:
 475              	.LBB249:
 119:digiBassPreamp.cpp ****         float a2 = (A + 1) + (A - 1) * cosw0 - 2 * sqrtf(A) * alpha;
 476              		.loc 6 119 15 view .LVU114
 477 0046 F8EE009A 		vmov.f32	s19, #-2.0e+0
 478              	.LBE249:
 479              	.LBE256:
 480              	.LBE263:
 481              	.LBE271:
 482              	.LBE341:
 483              	.LBE352:
 484              		.loc 6 187 28 view .LVU115
 485 004a 8248     		ldr	r0, .L30+36
 486 004c FFF7FEFF 		bl	_ZN5daisy16AdcChannelConfig10InitSingleE12dsy_gpio_pinNS0_15ConversionSpeedE
 487              	.LVL18:
 188:digiBassPreamp.cpp ****     adcConfig[2].InitSingle(A2);
 488              		.loc 6 188 5 is_stmt 1 view .LVU116
 489              		.loc 6 188 28 is_stmt 0 view .LVU117
 490 0050 0123     		movs	r3, #1
 491 0052 2246     		mov	r2, r4
 492 0054 8048     		ldr	r0, .L30+40
 493 0056 8DF80C30 		strb	r3, [sp, #12]
 494 005a 8DF80D30 		strb	r3, [sp, #13]
 495 005e 0399     		ldr	r1, [sp, #12]
 496 0060 FFF7FEFF 		bl	_ZN5daisy16AdcChannelConfig10InitSingleE12dsy_gpio_pinNS0_15ConversionSpeedE
 497              	.LVL19:
 189:digiBassPreamp.cpp **** 
 190:digiBassPreamp.cpp ****     hw.adc.Init(adcConfig, sizeof(adcConfig) / sizeof(adcConfig[0]));
 498              		.loc 6 190 5 is_stmt 1 view .LVU118
 499              		.loc 6 190 16 is_stmt 0 view .LVU119
 500 0064 2A46     		mov	r2, r5
 501 0066 7A49     		ldr	r1, .L30+32
 502 0068 0423     		movs	r3, #4
 503 006a 7C48     		ldr	r0, .L30+44
ARM GAS  C:\Users\Andrew\AppData\Local\Temp\ccOg8wBy.s 			page 23


 504 006c FFF7FEFF 		bl	_ZN5daisy9AdcHandle4InitEPNS_16AdcChannelConfigEjNS0_12OverSamplingE
 505              	.LVL20:
 191:digiBassPreamp.cpp **** 
 192:digiBassPreamp.cpp ****     hw.adc.Start();
 506              		.loc 6 192 5 is_stmt 1 view .LVU120
 507              		.loc 6 192 17 is_stmt 0 view .LVU121
 508 0070 7A48     		ldr	r0, .L30+44
 509 0072 FFF7FEFF 		bl	_ZN5daisy9AdcHandle5StartEv
 510              	.LVL21:
 193:digiBassPreamp.cpp **** 
 194:digiBassPreamp.cpp ****     eq.Init(hw.AudioSampleRate());
 511              		.loc 6 194 5 is_stmt 1 view .LVU122
 512              		.loc 6 194 12 is_stmt 0 view .LVU123
 513 0076 7448     		ldr	r0, .L30+24
 514 0078 FFF7FEFF 		bl	_ZN5daisy9DaisySeed15AudioSampleRateEv
 515              	.LVL22:
 516              	.LBB353:
 517              	.LBB342:
 518              	.LBB272:
 519              	.LBB264:
 520              	.LBB257:
 521              	.LBB250:
 111:digiBassPreamp.cpp ****         float alpha = sinf(w0) / (2.0f * Q);
 522              		.loc 6 111 44 view .LVU124
 523 007c B7EEC0BA 		vcvt.f64.f32	d11, s0
 524              	.LBE250:
 525              	.LBE257:
 526              	.LBE264:
 527              	.LBE272:
  45:digiBassPreamp.cpp **** 
 528              		.loc 6 45 13 view .LVU125
 529 0080 774C     		ldr	r4, .L30+48
  53:digiBassPreamp.cpp ****         mid_q_    = 1.0f;
 530              		.loc 6 53 19 view .LVU126
 531 0082 784B     		ldr	r3, .L30+52
 532              	.LVL23:
  53:digiBassPreamp.cpp ****         mid_q_    = 1.0f;
 533              		.loc 6 53 19 view .LVU127
 534              	.LBE342:
 535              	.LBI229:
  43:digiBassPreamp.cpp ****     {
 536              		.loc 6 43 10 is_stmt 1 view .LVU128
 537              	.LBB343:
  45:digiBassPreamp.cpp **** 
 538              		.loc 6 45 9 view .LVU129
  45:digiBassPreamp.cpp **** 
 539              		.loc 6 45 13 is_stmt 0 view .LVU130
 540 0084 84ED000A 		vstr.32	s0, [r4]
  48:digiBassPreamp.cpp ****         mid_freq_    = 800.0f;
 541              		.loc 6 48 9 is_stmt 1 view .LVU131
  48:digiBassPreamp.cpp ****         mid_freq_    = 800.0f;
 542              		.loc 6 48 22 is_stmt 0 view .LVU132
 543 0088 7748     		ldr	r0, .L30+56
  49:digiBassPreamp.cpp ****         treble_freq_ = 4000.0f;
 544              		.loc 6 49 22 view .LVU133
 545 008a 7849     		ldr	r1, .L30+60
  50:digiBassPreamp.cpp **** 
ARM GAS  C:\Users\Andrew\AppData\Local\Temp\ccOg8wBy.s 			page 24


 546              		.loc 6 50 22 view .LVU134
 547 008c 784A     		ldr	r2, .L30+64
 548              	.LBB273:
 549              	.LBB233:
  17:digiBassPreamp.cpp **** 
 550              		.loc 6 17 27 view .LVU135
 551 008e 84ED078A 		vstr.32	s16, [r4, #28]
  17:digiBassPreamp.cpp **** 
 552              		.loc 6 17 22 view .LVU136
 553 0092 84ED068A 		vstr.32	s16, [r4, #24]
 554              	.LBE233:
 555              	.LBE273:
 556              	.LBB274:
 557              	.LBB275:
  17:digiBassPreamp.cpp **** 
 558              		.loc 6 17 27 view .LVU137
 559 0096 84ED0E8A 		vstr.32	s16, [r4, #56]
  17:digiBassPreamp.cpp **** 
 560              		.loc 6 17 22 view .LVU138
 561 009a 84ED0D8A 		vstr.32	s16, [r4, #52]
 562              	.LBE275:
 563              	.LBE274:
 564              	.LBB277:
 565              	.LBB278:
  17:digiBassPreamp.cpp **** 
 566              		.loc 6 17 27 view .LVU139
 567 009e 84ED158A 		vstr.32	s16, [r4, #84]
  17:digiBassPreamp.cpp **** 
 568              		.loc 6 17 22 view .LVU140
 569 00a2 84ED148A 		vstr.32	s16, [r4, #80]
 570              	.LBE278:
 571              	.LBE277:
  48:digiBassPreamp.cpp ****         mid_freq_    = 800.0f;
 572              		.loc 6 48 22 view .LVU141
 573 00a6 A065     		str	r0, [r4, #88]	@ float
  49:digiBassPreamp.cpp ****         treble_freq_ = 4000.0f;
 574              		.loc 6 49 9 is_stmt 1 view .LVU142
  49:digiBassPreamp.cpp ****         treble_freq_ = 4000.0f;
 575              		.loc 6 49 22 is_stmt 0 view .LVU143
 576 00a8 E165     		str	r1, [r4, #92]	@ float
  50:digiBassPreamp.cpp **** 
 577              		.loc 6 50 9 is_stmt 1 view .LVU144
  50:digiBassPreamp.cpp **** 
 578              		.loc 6 50 22 is_stmt 0 view .LVU145
 579 00aa 2266     		str	r2, [r4, #96]	@ float
  53:digiBassPreamp.cpp ****         mid_q_    = 1.0f;
 580              		.loc 6 53 9 is_stmt 1 view .LVU146
  53:digiBassPreamp.cpp ****         mid_q_    = 1.0f;
 581              		.loc 6 53 19 is_stmt 0 view .LVU147
 582 00ac 6366     		str	r3, [r4, #100]	@ float
  54:digiBassPreamp.cpp ****         treble_q_ = 0.707f;
 583              		.loc 6 54 9 is_stmt 1 view .LVU148
  55:digiBassPreamp.cpp **** 
 584              		.loc 6 55 19 is_stmt 0 view .LVU149
 585 00ae E366     		str	r3, [r4, #108]	@ float
  54:digiBassPreamp.cpp ****         treble_q_ = 0.707f;
 586              		.loc 6 54 19 view .LVU150
ARM GAS  C:\Users\Andrew\AppData\Local\Temp\ccOg8wBy.s 			page 25


 587 00b0 84ED1A9A 		vstr.32	s18, [r4, #104]
  55:digiBassPreamp.cpp **** 
 588              		.loc 6 55 9 is_stmt 1 view .LVU151
  57:digiBassPreamp.cpp ****         mid.Init();
 589              		.loc 6 57 9 view .LVU152
 590              	.LVL24:
 591              	.LBB280:
 592              	.LBI231:
  17:digiBassPreamp.cpp **** 
 593              		.loc 6 17 10 view .LVU153
 594              	.LBB234:
  17:digiBassPreamp.cpp **** 
 595              		.loc 6 17 19 view .LVU154
  17:digiBassPreamp.cpp **** 
 596              		.loc 6 17 19 is_stmt 0 view .LVU155
 597              	.LBE234:
 598              	.LBE280:
  58:digiBassPreamp.cpp ****         treble.Init();
 599              		.loc 6 58 9 is_stmt 1 view .LVU156
 600              	.LBB281:
 601              	.LBI274:
  17:digiBassPreamp.cpp **** 
 602              		.loc 6 17 10 view .LVU157
 603              	.LBB276:
  17:digiBassPreamp.cpp **** 
 604              		.loc 6 17 19 view .LVU158
  17:digiBassPreamp.cpp **** 
 605              		.loc 6 17 19 is_stmt 0 view .LVU159
 606              	.LBE276:
 607              	.LBE281:
  59:digiBassPreamp.cpp **** 
 608              		.loc 6 59 9 is_stmt 1 view .LVU160
 609              	.LBB282:
 610              	.LBI277:
  17:digiBassPreamp.cpp **** 
 611              		.loc 6 17 10 view .LVU161
 612              	.LBB279:
  17:digiBassPreamp.cpp **** 
 613              		.loc 6 17 19 view .LVU162
  17:digiBassPreamp.cpp **** 
 614              		.loc 6 17 19 is_stmt 0 view .LVU163
 615              	.LBE279:
 616              	.LBE282:
  62:digiBassPreamp.cpp ****         SetMid(0.5f);
 617              		.loc 6 62 9 is_stmt 1 view .LVU164
 618              	.LBB283:
 619              	.LBI235:
  76:digiBassPreamp.cpp ****     {
 620              		.loc 6 76 10 view .LVU165
 621              	.LBB265:
  78:digiBassPreamp.cpp ****         SetLowShelf(bass, bass_freq_, bass_q_, db);
 622              		.loc 6 78 9 view .LVU166
  78:digiBassPreamp.cpp ****         SetLowShelf(bass, bass_freq_, bass_q_, db);
 623              		.loc 6 78 9 is_stmt 0 view .LVU167
 624              	.LBE265:
 625              	.LBE283:
 626              	.LBE343:
ARM GAS  C:\Users\Andrew\AppData\Local\Temp\ccOg8wBy.s 			page 26


 627              	.LBE353:
 102:digiBassPreamp.cpp ****     }
 628              		.loc 6 102 9 is_stmt 1 view .LVU168
 629              	.LBB354:
 630              	.LBB344:
 631              	.LBB284:
 632              	.LBB266:
  79:digiBassPreamp.cpp ****     }
 633              		.loc 6 79 9 view .LVU169
 634              	.LBB258:
 635              	.LBI237:
 108:digiBassPreamp.cpp ****     {
 636              		.loc 6 108 10 view .LVU170
 637              	.LBB251:
 110:digiBassPreamp.cpp ****         float w0    = 2.0f * M_PI * freq / sr_;
 638              		.loc 6 110 9 view .LVU171
 111:digiBassPreamp.cpp ****         float alpha = sinf(w0) / (2.0f * Q);
 639              		.loc 6 111 9 view .LVU172
 112:digiBassPreamp.cpp ****         float cosw0 = cosf(w0);
 640              		.loc 6 112 15 is_stmt 0 view .LVU173
 641 00b4 DFED6FAA 		vldr.32	s21, .L30+68
 111:digiBassPreamp.cpp ****         float alpha = sinf(w0) / (2.0f * Q);
 642              		.loc 6 111 42 view .LVU174
 643 00b8 9FED5D7B 		vldr.64	d7, .L30
 644 00bc 87EE0B0B 		vdiv.f64	d0, d7, d11
 645              	.LVL25:
 111:digiBassPreamp.cpp ****         float alpha = sinf(w0) / (2.0f * Q);
 646              		.loc 6 111 15 view .LVU175
 647 00c0 B7EEC0AB 		vcvt.f32.f64	s20, d0
 648              	.LVL26:
 112:digiBassPreamp.cpp ****         float cosw0 = cosf(w0);
 649              		.loc 6 112 9 is_stmt 1 view .LVU176
 112:digiBassPreamp.cpp ****         float cosw0 = cosf(w0);
 650              		.loc 6 112 27 is_stmt 0 view .LVU177
 651 00c4 B0EE4A0A 		vmov.f32	s0, s20
 652 00c8 FFF7FEFF 		bl	sinf
 653              	.LVL27:
 112:digiBassPreamp.cpp ****         float cosw0 = cosf(w0);
 654              		.loc 6 112 27 view .LVU178
 655 00cc F0EE407A 		vmov.f32	s15, s0
 113:digiBassPreamp.cpp **** 
 656              		.loc 6 113 27 view .LVU179
 657 00d0 B0EE4A0A 		vmov.f32	s0, s20
 112:digiBassPreamp.cpp ****         float cosw0 = cosf(w0);
 658              		.loc 6 112 15 view .LVU180
 659 00d4 87EEAAAA 		vdiv.f32	s20, s15, s21
 660              	.LVL28:
 113:digiBassPreamp.cpp **** 
 661              		.loc 6 113 9 is_stmt 1 view .LVU181
 113:digiBassPreamp.cpp **** 
 662              		.loc 6 113 27 is_stmt 0 view .LVU182
 663 00d8 FFF7FEFF 		bl	cosf
 664              	.LVL29:
 115:digiBassPreamp.cpp ****         float b1 = 2 * A * ((A - 1) - (A + 1) * cosw0);
 665              		.loc 6 115 9 is_stmt 1 view .LVU183
 115:digiBassPreamp.cpp ****         float b1 = 2 * A * ((A - 1) - (A + 1) * cosw0);
 666              		.loc 6 115 33 is_stmt 0 view .LVU184
ARM GAS  C:\Users\Andrew\AppData\Local\Temp\ccOg8wBy.s 			page 27


 667 00dc F0EE686A 		vmov.f32	s13, s17
 118:digiBassPreamp.cpp ****         float a1 = -2 * ((A - 1) + (A + 1) * cosw0);
 668              		.loc 6 118 28 view .LVU185
 669 00e0 B0EE687A 		vmov.f32	s14, s17
 116:digiBassPreamp.cpp ****         float b2 = A * ((A + 1) - (A - 1) * cosw0 - 2 * sqrtf(A) * alpha);
 670              		.loc 6 116 37 view .LVU186
 671 00e4 F0EE487A 		vmov.f32	s15, s16
 115:digiBassPreamp.cpp ****         float b1 = 2 * A * ((A - 1) - (A + 1) * cosw0);
 672              		.loc 6 115 33 view .LVU187
 673 00e8 E0EE486A 		vfms.f32	s13, s0, s16
 118:digiBassPreamp.cpp ****         float a1 = -2 * ((A - 1) + (A + 1) * cosw0);
 674              		.loc 6 118 28 view .LVU188
 675 00ec A0EE087A 		vfma.f32	s14, s0, s16
 116:digiBassPreamp.cpp ****         float b2 = A * ((A + 1) - (A - 1) * cosw0 - 2 * sqrtf(A) * alpha);
 676              		.loc 6 116 37 view .LVU189
 677 00f0 E0EE687A 		vfms.f32	s15, s0, s17
 119:digiBassPreamp.cpp ****         float a2 = (A + 1) + (A - 1) * cosw0 - 2 * sqrtf(A) * alpha;
 678              		.loc 6 119 34 view .LVU190
 679 00f4 F0EE485A 		vmov.f32	s11, s16
 680              	.LBE251:
 681              	.LBE258:
 682              	.LBE266:
 683              	.LBE284:
 684              	.LBB285:
 685              	.LBB286:
 686              	.LBB287:
 687              	.LBB288:
 145:digiBassPreamp.cpp ****         float alpha = sinf(w0) / (2.0f * Q);
 688              		.loc 6 145 42 view .LVU191
 689 00f8 9FED4F4B 		vldr.64	d4, .L30+8
 690              	.LBE288:
 691              	.LBE287:
 692              	.LBE286:
 693              	.LBE285:
 694              	.LBB309:
 695              	.LBB267:
 696              	.LBB259:
 697              	.LBB252:
 119:digiBassPreamp.cpp ****         float a2 = (A + 1) + (A - 1) * cosw0 - 2 * sqrtf(A) * alpha;
 698              		.loc 6 119 34 view .LVU192
 699 00fc E0EE285A 		vfma.f32	s11, s0, s17
 115:digiBassPreamp.cpp ****         float b1 = 2 * A * ((A - 1) - (A + 1) * cosw0);
 700              		.loc 6 115 51 view .LVU193
 701 0100 B0EE665A 		vmov.f32	s10, s13
 702              	.LBE252:
 703              	.LBE259:
 704              	.LBE267:
 705              	.LBE309:
 706              	.LBB310:
 707              	.LBB303:
 708              	.LBB298:
 709              	.LBB293:
 145:digiBassPreamp.cpp ****         float alpha = sinf(w0) / (2.0f * Q);
 710              		.loc 6 145 42 view .LVU194
 711 0104 84EE0BCB 		vdiv.f64	d12, d4, d11
 712              	.LBE293:
 713              	.LBE298:
ARM GAS  C:\Users\Andrew\AppData\Local\Temp\ccOg8wBy.s 			page 28


 714              	.LBE303:
 715              	.LBE310:
 716              	.LBB311:
 717              	.LBB268:
 718              	.LBB260:
 719              	.LBB253:
 116:digiBassPreamp.cpp ****         float b2 = A * ((A + 1) - (A - 1) * cosw0 - 2 * sqrtf(A) * alpha);
 720              		.loc 6 116 15 view .LVU195
 721 0108 37EEA76A 		vadd.f32	s12, s15, s15
 118:digiBassPreamp.cpp ****         float a1 = -2 * ((A - 1) + (A + 1) * cosw0);
 722              		.loc 6 118 63 view .LVU196
 723 010c F0EE477A 		vmov.f32	s15, s14
 115:digiBassPreamp.cpp ****         float b1 = 2 * A * ((A - 1) - (A + 1) * cosw0);
 724              		.loc 6 115 51 view .LVU197
 725 0110 AAEE285A 		vfma.f32	s10, s20, s17
 726              	.LVL30:
 116:digiBassPreamp.cpp ****         float b2 = A * ((A + 1) - (A - 1) * cosw0 - 2 * sqrtf(A) * alpha);
 727              		.loc 6 116 9 is_stmt 1 view .LVU198
 117:digiBassPreamp.cpp ****         float a0 = (A + 1) + (A - 1) * cosw0 + 2 * sqrtf(A) * alpha;
 728              		.loc 6 117 9 view .LVU199
 120:digiBassPreamp.cpp **** 
 729              		.loc 6 120 63 is_stmt 0 view .LVU200
 730 0114 AAEE687A 		vfms.f32	s14, s20, s17
 118:digiBassPreamp.cpp ****         float a1 = -2 * ((A - 1) + (A + 1) * cosw0);
 731              		.loc 6 118 63 view .LVU201
 732 0118 EAEE287A 		vfma.f32	s15, s20, s17
 117:digiBassPreamp.cpp ****         float a0 = (A + 1) + (A - 1) * cosw0 + 2 * sqrtf(A) * alpha;
 733              		.loc 6 117 51 view .LVU202
 734 011c EAEE686A 		vfms.f32	s13, s20, s17
 735              	.LVL31:
 118:digiBassPreamp.cpp ****         float a1 = -2 * ((A - 1) + (A + 1) * cosw0);
 736              		.loc 6 118 9 is_stmt 1 view .LVU203
 119:digiBassPreamp.cpp ****         float a2 = (A + 1) + (A - 1) * cosw0 - 2 * sqrtf(A) * alpha;
 737              		.loc 6 119 9 view .LVU204
 120:digiBassPreamp.cpp **** 
 738              		.loc 6 120 9 view .LVU205
 122:digiBassPreamp.cpp ****     }
 739              		.loc 6 122 9 view .LVU206
 740              	.LBB239:
 741              	.LBI239:
  27:digiBassPreamp.cpp ****     {
 742              		.loc 6 27 10 view .LVU207
 743              	.LBB240:
  29:digiBassPreamp.cpp ****         a1 = _a1;
 744              		.loc 6 29 9 view .LVU208
 745              	.LBE240:
 746              	.LBE239:
 119:digiBassPreamp.cpp ****         float a2 = (A + 1) + (A - 1) * cosw0 - 2 * sqrtf(A) * alpha;
 747              		.loc 6 119 15 is_stmt 0 view .LVU209
 748 0120 65EEA95A 		vmul.f32	s11, s11, s19
 749              	.LVL32:
 122:digiBassPreamp.cpp ****     }
 750              		.loc 6 122 20 view .LVU210
 751 0124 85EE274A 		vdiv.f32	s8, s10, s15
 752              	.LVL33:
 122:digiBassPreamp.cpp ****     }
 753              		.loc 6 122 20 view .LVU211
ARM GAS  C:\Users\Andrew\AppData\Local\Temp\ccOg8wBy.s 			page 29


 754 0128 C6EE274A 		vdiv.f32	s9, s12, s15
 755 012c 86EEA75A 		vdiv.f32	s10, s13, s15
 756              	.LVL34:
 122:digiBassPreamp.cpp ****     }
 757              		.loc 6 122 20 view .LVU212
 758 0130 85EEA76A 		vdiv.f32	s12, s11, s15
 759              	.LBB245:
 760              	.LBB241:
  29:digiBassPreamp.cpp ****         a1 = _a1;
 761              		.loc 6 29 12 view .LVU213
 762 0134 84ED014A 		vstr.32	s8, [r4, #4]
  30:digiBassPreamp.cpp ****         a2 = _a2;
 763              		.loc 6 30 9 is_stmt 1 view .LVU214
 764              	.LBE241:
 765              	.LBE245:
 122:digiBassPreamp.cpp ****     }
 766              		.loc 6 122 20 is_stmt 0 view .LVU215
 767 0138 C7EE276A 		vdiv.f32	s13, s14, s15
 768              	.LVL35:
 769              	.LBB246:
 770              	.LBB242:
  30:digiBassPreamp.cpp ****         a2 = _a2;
 771              		.loc 6 30 12 view .LVU216
 772 013c C4ED024A 		vstr.32	s9, [r4, #8]
  31:digiBassPreamp.cpp ****         b1 = _b1;
 773              		.loc 6 31 9 is_stmt 1 view .LVU217
 774              	.LBE242:
 775              	.LBE246:
 776              	.LBE253:
 777              	.LBE260:
 778              	.LBE268:
 779              	.LBE311:
 780              	.LBB312:
 781              	.LBB304:
 782              	.LBB299:
 783              	.LBB294:
 145:digiBassPreamp.cpp ****         float alpha = sinf(w0) / (2.0f * Q);
 784              		.loc 6 145 15 is_stmt 0 view .LVU218
 785 0140 B7EECCCB 		vcvt.f32.f64	s24, d12
 786              	.LBE294:
 787              	.LBE299:
 788              	.LBE304:
 789              	.LBE312:
 790              	.LBB313:
 791              	.LBB269:
 792              	.LBB261:
 793              	.LBB254:
 794              	.LBB247:
 795              	.LBB243:
  31:digiBassPreamp.cpp ****         b1 = _b1;
 796              		.loc 6 31 12 view .LVU219
 797 0144 84ED035A 		vstr.32	s10, [r4, #12]
  32:digiBassPreamp.cpp ****         b2 = _b2;
 798              		.loc 6 32 9 is_stmt 1 view .LVU220
 799              	.LBE243:
 800              	.LBE247:
 801              	.LBE254:
ARM GAS  C:\Users\Andrew\AppData\Local\Temp\ccOg8wBy.s 			page 30


 802              	.LBE261:
 803              	.LBE269:
 804              	.LBE313:
 805              	.LBB314:
 806              	.LBB305:
 807              	.LBB300:
 808              	.LBB295:
 146:digiBassPreamp.cpp ****         float cosw0 = cosf(w0);
 809              		.loc 6 146 27 is_stmt 0 view .LVU221
 810 0148 B0EE4C0A 		vmov.f32	s0, s24
 811              	.LVL36:
 146:digiBassPreamp.cpp ****         float cosw0 = cosf(w0);
 812              		.loc 6 146 27 view .LVU222
 813              	.LBE295:
 814              	.LBE300:
 815              	.LBE305:
 816              	.LBE314:
 817              	.LBB315:
 818              	.LBB270:
 819              	.LBB262:
 820              	.LBB255:
 821              	.LBB248:
 822              	.LBB244:
  32:digiBassPreamp.cpp ****         b2 = _b2;
 823              		.loc 6 32 12 view .LVU223
 824 014c 84ED046A 		vstr.32	s12, [r4, #16]
  33:digiBassPreamp.cpp ****     }
 825              		.loc 6 33 9 is_stmt 1 view .LVU224
  33:digiBassPreamp.cpp ****     }
 826              		.loc 6 33 12 is_stmt 0 view .LVU225
 827 0150 C4ED056A 		vstr.32	s13, [r4, #20]
 828              	.LVL37:
  33:digiBassPreamp.cpp ****     }
 829              		.loc 6 33 12 view .LVU226
 830              	.LBE244:
 831              	.LBE248:
 832              	.LBE255:
 833              	.LBE262:
 834              	.LBE270:
 835              	.LBE315:
  63:digiBassPreamp.cpp ****         SetTreble(0.5f);
 836              		.loc 6 63 9 is_stmt 1 view .LVU227
 837              	.LBB316:
 838              	.LBI285:
  82:digiBassPreamp.cpp ****     {
 839              		.loc 6 82 10 view .LVU228
 840              	.LBB306:
  84:digiBassPreamp.cpp ****         SetPeak(mid, mid_freq_, mid_q_, db);
 841              		.loc 6 84 9 view .LVU229
  84:digiBassPreamp.cpp ****         SetPeak(mid, mid_freq_, mid_q_, db);
 842              		.loc 6 84 9 is_stmt 0 view .LVU230
 843              	.LBE306:
 844              	.LBE316:
 845              	.LBE344:
 846              	.LBE354:
 102:digiBassPreamp.cpp ****     }
 847              		.loc 6 102 9 is_stmt 1 view .LVU231
ARM GAS  C:\Users\Andrew\AppData\Local\Temp\ccOg8wBy.s 			page 31


 848              	.LBB355:
 849              	.LBB345:
 850              	.LBB317:
 851              	.LBB307:
  85:digiBassPreamp.cpp ****     }
 852              		.loc 6 85 9 view .LVU232
 853              	.LBB301:
 854              	.LBI287:
 142:digiBassPreamp.cpp ****     {
 855              		.loc 6 142 10 view .LVU233
 856              	.LBB296:
 144:digiBassPreamp.cpp ****         float w0    = 2.0f * M_PI * freq / sr_;
 857              		.loc 6 144 9 view .LVU234
 145:digiBassPreamp.cpp ****         float alpha = sinf(w0) / (2.0f * Q);
 858              		.loc 6 145 9 view .LVU235
 146:digiBassPreamp.cpp ****         float cosw0 = cosf(w0);
 859              		.loc 6 146 9 view .LVU236
 146:digiBassPreamp.cpp ****         float cosw0 = cosf(w0);
 860              		.loc 6 146 27 is_stmt 0 view .LVU237
 861 0154 FFF7FEFF 		bl	sinf
 862              	.LVL38:
 146:digiBassPreamp.cpp ****         float cosw0 = cosf(w0);
 863              		.loc 6 146 27 view .LVU238
 864 0158 B0EE40AA 		vmov.f32	s20, s0
 147:digiBassPreamp.cpp **** 
 865              		.loc 6 147 27 view .LVU239
 866 015c B0EE4C0A 		vmov.f32	s0, s24
 867              	.LVL39:
 147:digiBassPreamp.cpp **** 
 868              		.loc 6 147 9 is_stmt 1 view .LVU240
 147:digiBassPreamp.cpp **** 
 869              		.loc 6 147 27 is_stmt 0 view .LVU241
 870 0160 FFF7FEFF 		bl	cosf
 871              	.LVL40:
 149:digiBassPreamp.cpp ****         float b1 = -2 * cosw0;
 872              		.loc 6 149 9 is_stmt 1 view .LVU242
 149:digiBassPreamp.cpp ****         float b1 = -2 * cosw0;
 873              		.loc 6 149 15 is_stmt 0 view .LVU243
 874 0164 B6EE006A 		vmov.f32	s12, #5.0e-1
 875 0168 F0EE496A 		vmov.f32	s13, s18
 150:digiBassPreamp.cpp ****         float b2 = 1 - alpha * A;
 876              		.loc 6 150 15 view .LVU244
 877 016c 20EE290A 		vmul.f32	s0, s0, s19
 878              	.LVL41:
 151:digiBassPreamp.cpp ****         float a0 = 1 + alpha / A;
 879              		.loc 6 151 15 view .LVU245
 880 0170 AAEE469A 		vfms.f32	s18, s20, s12
 149:digiBassPreamp.cpp ****         float b1 = -2 * cosw0;
 881              		.loc 6 149 15 view .LVU246
 882 0174 EAEE066A 		vfma.f32	s13, s20, s12
 883              	.LVL42:
 150:digiBassPreamp.cpp ****         float b2 = 1 - alpha * A;
 884              		.loc 6 150 9 is_stmt 1 view .LVU247
 151:digiBassPreamp.cpp ****         float a0 = 1 + alpha / A;
 885              		.loc 6 151 9 view .LVU248
 152:digiBassPreamp.cpp ****         float a1 = -2 * cosw0;
 886              		.loc 6 152 9 view .LVU249
ARM GAS  C:\Users\Andrew\AppData\Local\Temp\ccOg8wBy.s 			page 32


 153:digiBassPreamp.cpp ****         float a2 = 1 - alpha / A;
 887              		.loc 6 153 9 view .LVU250
 154:digiBassPreamp.cpp **** 
 888              		.loc 6 154 9 view .LVU251
 156:digiBassPreamp.cpp ****     }
 889              		.loc 6 156 9 view .LVU252
 890              	.LBE296:
 891              	.LBE301:
 892              	.LBE307:
 893              	.LBE317:
 894              	.LBB318:
 895              	.LBB319:
 896              	.LBB320:
 897              	.LBB321:
 128:digiBassPreamp.cpp ****         float alpha = sinf(w0) / (2.0f * Q);
 898              		.loc 6 128 42 is_stmt 0 view .LVU253
 899 0178 9FED315B 		vldr.64	d5, .L30+16
 900 017c 85EE0B7B 		vdiv.f64	d7, d5, d11
 901              	.LBE321:
 902              	.LBE320:
 903              	.LBE319:
 904              	.LBE318:
 905              	.LBB335:
 906              	.LBB308:
 907              	.LBB302:
 908              	.LBB297:
 156:digiBassPreamp.cpp ****     }
 909              		.loc 6 156 20 view .LVU254
 910 0180 89EE266A 		vdiv.f32	s12, s18, s13
 911              	.LVL43:
 156:digiBassPreamp.cpp ****     }
 912              		.loc 6 156 20 view .LVU255
 913 0184 C0EE265A 		vdiv.f32	s11, s0, s13
 914              	.LVL44:
 915              	.LBB289:
 916              	.LBI289:
  27:digiBassPreamp.cpp ****     {
 917              		.loc 6 27 10 is_stmt 1 view .LVU256
 918              	.LBB290:
  29:digiBassPreamp.cpp ****         a1 = _a1;
 919              		.loc 6 29 9 view .LVU257
 920              	.LBE290:
 921              	.LBE289:
 156:digiBassPreamp.cpp ****     }
 922              		.loc 6 156 20 is_stmt 0 view .LVU258
 923 0188 86EEA65A 		vdiv.f32	s10, s13, s13
 924              	.LVL45:
 925              	.LBB292:
 926              	.LBB291:
  31:digiBassPreamp.cpp ****         b1 = _b1;
 927              		.loc 6 31 12 view .LVU259
 928 018c 84ED0A6A 		vstr.32	s12, [r4, #40]
  33:digiBassPreamp.cpp ****     }
 929              		.loc 6 33 12 view .LVU260
 930 0190 84ED0C6A 		vstr.32	s12, [r4, #48]
  30:digiBassPreamp.cpp ****         a2 = _a2;
 931              		.loc 6 30 12 view .LVU261
ARM GAS  C:\Users\Andrew\AppData\Local\Temp\ccOg8wBy.s 			page 33


 932 0194 C4ED095A 		vstr.32	s11, [r4, #36]
  32:digiBassPreamp.cpp ****         b2 = _b2;
 933              		.loc 6 32 12 view .LVU262
 934 0198 C4ED0B5A 		vstr.32	s11, [r4, #44]
  29:digiBassPreamp.cpp ****         a1 = _a1;
 935              		.loc 6 29 12 view .LVU263
 936 019c 84ED085A 		vstr.32	s10, [r4, #32]
  30:digiBassPreamp.cpp ****         a2 = _a2;
 937              		.loc 6 30 9 is_stmt 1 view .LVU264
  31:digiBassPreamp.cpp ****         b1 = _b1;
 938              		.loc 6 31 9 view .LVU265
  32:digiBassPreamp.cpp ****         b2 = _b2;
 939              		.loc 6 32 9 view .LVU266
  33:digiBassPreamp.cpp ****     }
 940              		.loc 6 33 9 view .LVU267
 941              	.LVL46:
  33:digiBassPreamp.cpp ****     }
 942              		.loc 6 33 9 is_stmt 0 view .LVU268
 943              	.LBE291:
 944              	.LBE292:
 945              	.LBE297:
 946              	.LBE302:
 947              	.LBE308:
 948              	.LBE335:
  64:digiBassPreamp.cpp ****     }
 949              		.loc 6 64 9 is_stmt 1 view .LVU269
 950              	.LBB336:
 951              	.LBI318:
  88:digiBassPreamp.cpp ****     {
 952              		.loc 6 88 10 view .LVU270
 953              	.LBB332:
  90:digiBassPreamp.cpp ****         SetHighShelf(treble, treble_freq_, treble_q_, db);
 954              		.loc 6 90 9 view .LVU271
  90:digiBassPreamp.cpp ****         SetHighShelf(treble, treble_freq_, treble_q_, db);
 955              		.loc 6 90 9 is_stmt 0 view .LVU272
 956              	.LBE332:
 957              	.LBE336:
 958              	.LBE345:
 959              	.LBE355:
 102:digiBassPreamp.cpp ****     }
 960              		.loc 6 102 9 is_stmt 1 view .LVU273
 961              	.LBB356:
 962              	.LBB346:
 963              	.LBB337:
 964              	.LBB333:
  91:digiBassPreamp.cpp ****     }
 965              		.loc 6 91 9 view .LVU274
 966              	.LBB330:
 967              	.LBI320:
 125:digiBassPreamp.cpp ****     {
 968              		.loc 6 125 10 view .LVU275
 969              	.LBB328:
 127:digiBassPreamp.cpp ****         float w0    = 2.0f * M_PI * freq / sr_;
 970              		.loc 6 127 9 view .LVU276
 128:digiBassPreamp.cpp ****         float alpha = sinf(w0) / (2.0f * Q);
 971              		.loc 6 128 9 view .LVU277
 128:digiBassPreamp.cpp ****         float alpha = sinf(w0) / (2.0f * Q);
ARM GAS  C:\Users\Andrew\AppData\Local\Temp\ccOg8wBy.s 			page 34


 972              		.loc 6 128 15 is_stmt 0 view .LVU278
 973 01a0 B7EEC79B 		vcvt.f32.f64	s18, d7
 974              	.LVL47:
 129:digiBassPreamp.cpp ****         float cosw0 = cosf(w0);
 975              		.loc 6 129 9 is_stmt 1 view .LVU279
 129:digiBassPreamp.cpp ****         float cosw0 = cosf(w0);
 976              		.loc 6 129 27 is_stmt 0 view .LVU280
 977 01a4 B0EE490A 		vmov.f32	s0, s18
 978 01a8 FFF7FEFF 		bl	sinf
 979              	.LVL48:
 980 01ac F0EE407A 		vmov.f32	s15, s0
 130:digiBassPreamp.cpp **** 
 981              		.loc 6 130 27 view .LVU281
 982 01b0 B0EE490A 		vmov.f32	s0, s18
 129:digiBassPreamp.cpp ****         float cosw0 = cosf(w0);
 983              		.loc 6 129 15 view .LVU282
 984 01b4 87EEAA9A 		vdiv.f32	s18, s15, s21
 985              	.LVL49:
 130:digiBassPreamp.cpp **** 
 986              		.loc 6 130 9 is_stmt 1 view .LVU283
 130:digiBassPreamp.cpp **** 
 987              		.loc 6 130 27 is_stmt 0 view .LVU284
 988 01b8 FFF7FEFF 		bl	cosf
 989              	.LVL50:
 130:digiBassPreamp.cpp **** 
 990              		.loc 6 130 27 view .LVU285
 991              	.LBE328:
 992              	.LBE330:
 993              	.LBE333:
 994              	.LBE337:
 995              	.LBE346:
 996              	.LBE356:
 195:digiBassPreamp.cpp ****     hw.StartAudio(AudioCallback);
 997              		.loc 6 195 18 view .LVU286
 998 01bc 2E49     		ldr	r1, .L30+72
 999 01be 2248     		ldr	r0, .L30+24
 1000              	.LVL51:
 1001              	.LBB357:
 1002              	.LBB347:
 1003              	.LBB338:
 1004              	.LBB334:
 1005              	.LBB331:
 1006              	.LBB329:
 132:digiBassPreamp.cpp ****         float b1 = -2 * A * ((A - 1) + (A + 1) * cosw0);
 1007              		.loc 6 132 9 is_stmt 1 view .LVU287
 132:digiBassPreamp.cpp ****         float b1 = -2 * A * ((A - 1) + (A + 1) * cosw0);
 1008              		.loc 6 132 33 is_stmt 0 view .LVU288
 1009 01c0 F0EE686A 		vmov.f32	s13, s17
 135:digiBassPreamp.cpp ****         float a1 = 2 * ((A - 1) - (A + 1) * cosw0);
 1010              		.loc 6 135 28 view .LVU289
 1011 01c4 B0EE687A 		vmov.f32	s14, s17
 133:digiBassPreamp.cpp ****         float b2 = A * ((A + 1) + (A - 1) * cosw0 - 2 * sqrtf(A) * alpha);
 1012              		.loc 6 133 38 view .LVU290
 1013 01c8 F0EE487A 		vmov.f32	s15, s16
 132:digiBassPreamp.cpp ****         float b1 = -2 * A * ((A - 1) + (A + 1) * cosw0);
 1014              		.loc 6 132 33 view .LVU291
 1015 01cc E0EE086A 		vfma.f32	s13, s0, s16
ARM GAS  C:\Users\Andrew\AppData\Local\Temp\ccOg8wBy.s 			page 35


 135:digiBassPreamp.cpp ****         float a1 = 2 * ((A - 1) - (A + 1) * cosw0);
 1016              		.loc 6 135 28 view .LVU292
 1017 01d0 A0EE487A 		vfms.f32	s14, s0, s16
 133:digiBassPreamp.cpp ****         float b2 = A * ((A + 1) + (A - 1) * cosw0 - 2 * sqrtf(A) * alpha);
 1018              		.loc 6 133 38 view .LVU293
 1019 01d4 E0EE287A 		vfma.f32	s15, s0, s17
 136:digiBassPreamp.cpp ****         float a2 = (A + 1) - (A - 1) * cosw0 - 2 * sqrtf(A) * alpha;
 1020              		.loc 6 136 33 view .LVU294
 1021 01d8 A0EE688A 		vfms.f32	s16, s0, s17
 132:digiBassPreamp.cpp ****         float b1 = -2 * A * ((A - 1) + (A + 1) * cosw0);
 1022              		.loc 6 132 51 view .LVU295
 1023 01dc B0EE666A 		vmov.f32	s12, s13
 133:digiBassPreamp.cpp ****         float b2 = A * ((A + 1) + (A - 1) * cosw0 - 2 * sqrtf(A) * alpha);
 1024              		.loc 6 133 15 view .LVU296
 1025 01e0 67EEA99A 		vmul.f32	s19, s15, s19
 135:digiBassPreamp.cpp ****         float a1 = 2 * ((A - 1) - (A + 1) * cosw0);
 1026              		.loc 6 135 63 view .LVU297
 1027 01e4 F0EE477A 		vmov.f32	s15, s14
 132:digiBassPreamp.cpp ****         float b1 = -2 * A * ((A - 1) + (A + 1) * cosw0);
 1028              		.loc 6 132 51 view .LVU298
 1029 01e8 A9EE286A 		vfma.f32	s12, s18, s17
 1030              	.LVL52:
 133:digiBassPreamp.cpp ****         float b2 = A * ((A + 1) + (A - 1) * cosw0 - 2 * sqrtf(A) * alpha);
 1031              		.loc 6 133 9 is_stmt 1 view .LVU299
 134:digiBassPreamp.cpp ****         float a0 = (A + 1) - (A - 1) * cosw0 + 2 * sqrtf(A) * alpha;
 1032              		.loc 6 134 9 view .LVU300
 134:digiBassPreamp.cpp ****         float a0 = (A + 1) - (A - 1) * cosw0 + 2 * sqrtf(A) * alpha;
 1033              		.loc 6 134 51 is_stmt 0 view .LVU301
 1034 01ec E9EE686A 		vfms.f32	s13, s18, s17
 1035              	.LVL53:
 135:digiBassPreamp.cpp ****         float a1 = 2 * ((A - 1) - (A + 1) * cosw0);
 1036              		.loc 6 135 9 is_stmt 1 view .LVU302
 135:digiBassPreamp.cpp ****         float a1 = 2 * ((A - 1) - (A + 1) * cosw0);
 1037              		.loc 6 135 63 is_stmt 0 view .LVU303
 1038 01f0 E9EE287A 		vfma.f32	s15, s18, s17
 1039              	.LVL54:
 136:digiBassPreamp.cpp ****         float a2 = (A + 1) - (A - 1) * cosw0 - 2 * sqrtf(A) * alpha;
 1040              		.loc 6 136 9 is_stmt 1 view .LVU304
 137:digiBassPreamp.cpp **** 
 1041              		.loc 6 137 9 view .LVU305
 137:digiBassPreamp.cpp **** 
 1042              		.loc 6 137 63 is_stmt 0 view .LVU306
 1043 01f4 A9EE687A 		vfms.f32	s14, s18, s17
 1044              	.LVL55:
 139:digiBassPreamp.cpp ****     }
 1045              		.loc 6 139 9 is_stmt 1 view .LVU307
 1046              	.LBB322:
 1047              	.LBI322:
  27:digiBassPreamp.cpp ****     {
 1048              		.loc 6 27 10 view .LVU308
 1049              	.LBB323:
  29:digiBassPreamp.cpp ****         a1 = _a1;
 1050              		.loc 6 29 9 view .LVU309
 1051              	.LBE323:
 1052              	.LBE322:
 136:digiBassPreamp.cpp ****         float a2 = (A + 1) - (A - 1) * cosw0 - 2 * sqrtf(A) * alpha;
 1053              		.loc 6 136 15 is_stmt 0 view .LVU310
ARM GAS  C:\Users\Andrew\AppData\Local\Temp\ccOg8wBy.s 			page 36


 1054 01f8 38EE088A 		vadd.f32	s16, s16, s16
 1055              	.LVL56:
 139:digiBassPreamp.cpp ****     }
 1056              		.loc 6 139 20 view .LVU311
 1057 01fc C6EE274A 		vdiv.f32	s9, s12, s15
 1058              	.LVL57:
 139:digiBassPreamp.cpp ****     }
 1059              		.loc 6 139 20 view .LVU312
 1060 0200 C6EEA75A 		vdiv.f32	s11, s13, s15
 1061              	.LVL58:
 139:digiBassPreamp.cpp ****     }
 1062              		.loc 6 139 20 view .LVU313
 1063 0204 89EEA75A 		vdiv.f32	s10, s19, s15
 1064 0208 88EE276A 		vdiv.f32	s12, s16, s15
 1065              	.LVL59:
 1066              	.LBB326:
 1067              	.LBB324:
  29:digiBassPreamp.cpp ****         a1 = _a1;
 1068              		.loc 6 29 12 view .LVU314
 1069 020c C4ED0F4A 		vstr.32	s9, [r4, #60]
  30:digiBassPreamp.cpp ****         a2 = _a2;
 1070              		.loc 6 30 9 is_stmt 1 view .LVU315
 1071              	.LBE324:
 1072              	.LBE326:
 139:digiBassPreamp.cpp ****     }
 1073              		.loc 6 139 20 is_stmt 0 view .LVU316
 1074 0210 C7EE276A 		vdiv.f32	s13, s14, s15
 1075              	.LVL60:
 1076              	.LBB327:
 1077              	.LBB325:
  31:digiBassPreamp.cpp ****         b1 = _b1;
 1078              		.loc 6 31 12 view .LVU317
 1079 0214 C4ED115A 		vstr.32	s11, [r4, #68]
  30:digiBassPreamp.cpp ****         a2 = _a2;
 1080              		.loc 6 30 12 view .LVU318
 1081 0218 84ED105A 		vstr.32	s10, [r4, #64]
  31:digiBassPreamp.cpp ****         b1 = _b1;
 1082              		.loc 6 31 9 is_stmt 1 view .LVU319
  32:digiBassPreamp.cpp ****         b2 = _b2;
 1083              		.loc 6 32 9 view .LVU320
  32:digiBassPreamp.cpp ****         b2 = _b2;
 1084              		.loc 6 32 12 is_stmt 0 view .LVU321
 1085 021c 84ED126A 		vstr.32	s12, [r4, #72]
  33:digiBassPreamp.cpp ****     }
 1086              		.loc 6 33 9 is_stmt 1 view .LVU322
  33:digiBassPreamp.cpp ****     }
 1087              		.loc 6 33 12 is_stmt 0 view .LVU323
 1088 0220 C4ED136A 		vstr.32	s13, [r4, #76]
 1089              	.LVL61:
  33:digiBassPreamp.cpp ****     }
 1090              		.loc 6 33 12 view .LVU324
 1091              	.LBE325:
 1092              	.LBE327:
 1093              	.LBE329:
 1094              	.LBE331:
 1095              	.LBE334:
 1096              	.LBE338:
ARM GAS  C:\Users\Andrew\AppData\Local\Temp\ccOg8wBy.s 			page 37


 1097              	.LBE347:
 1098              	.LBE357:
 1099              		.loc 6 195 5 is_stmt 1 view .LVU325
 1100              		.loc 6 195 18 is_stmt 0 view .LVU326
 1101 0224 FFF7FEFF 		bl	_ZN5daisy9DaisySeed10StartAudioEPFvPKPKfPPfjE
 1102              	.LVL62:
 1103 0228 37E1     		b	.L23
 1104              	.L31:
 1105 022a 00BFAFF3 		.align	3
 1105      0080
 1106              	.L30:
 1107 0230 5E385529 		.word	693450846
 1108 0234 7A6A7F40 		.word	1082092154
 1109 0238 3B43D559 		.word	1507148603
 1110 023c 8CA2B340 		.word	1085514380
 1111 0240 09944A70 		.word	1883935753
 1112 0244 2F8BD840 		.word	1087933231
 1113 0248 00000000 		.word	.LANCHOR1
 1114 024c 00000000 		.word	0
 1115 0250 00000000 		.word	.LANCHOR2
 1116 0254 12000000 		.word	.LANCHOR2+18
 1117 0258 24000000 		.word	.LANCHOR2+36
 1118 025c 18000000 		.word	.LANCHOR1+24
 1119 0260 00000000 		.word	.LANCHOR0
 1120 0264 F4FD343F 		.word	1060437492
 1121 0268 0000A042 		.word	1117782016
 1122 026c 00004844 		.word	1145569280
 1123 0270 00007A45 		.word	1165623296
 1124 0274 F4FDB43F 		.word	1068826100
 1125 0278 00000000 		.word	_Z13AudioCallbackPKPKfPPfj
 1126 027c 00002042 		.word	1109393408
 1127              	.LVL63:
 1128              	.L29:
 1129              	.LBB358:
 1130              	.LBB359:
 1131              	.LBB360:
 1132              	.LBB361:
 1133              	.LBB362:
 115:digiBassPreamp.cpp ****         float b1 = 2 * A * ((A - 1) - (A + 1) * cosw0);
 1134              		.loc 6 115 62 view .LVU327
 1135 0280 F1EEC87A 		vsqrt.f32	s15, s16
 116:digiBassPreamp.cpp ****         float b2 = A * ((A + 1) - (A - 1) * cosw0 - 2 * sqrtf(A) * alpha);
 1136              		.loc 6 116 37 view .LVU328
 1137 0284 F0EE686A 		vmov.f32	s13, s17
 115:digiBassPreamp.cpp ****         float b1 = 2 * A * ((A - 1) - (A + 1) * cosw0);
 1138              		.loc 6 115 51 view .LVU329
 1139 0288 B0EE4BDA 		vmov.f32	s26, s22
 119:digiBassPreamp.cpp ****         float a2 = (A + 1) + (A - 1) * cosw0 - 2 * sqrtf(A) * alpha;
 1140              		.loc 6 119 34 view .LVU330
 1141 028c E0EE2A8A 		vfma.f32	s17, s0, s21
 116:digiBassPreamp.cpp ****         float b2 = A * ((A + 1) - (A - 1) * cosw0 - 2 * sqrtf(A) * alpha);
 1142              		.loc 6 116 37 view .LVU331
 1143 0290 E0EE6A6A 		vfms.f32	s13, s0, s21
 118:digiBassPreamp.cpp ****         float a1 = -2 * ((A - 1) + (A + 1) * cosw0);
 1144              		.loc 6 118 28 view .LVU332
 1145 0294 7AEEA99A 		vadd.f32	s19, s21, s19
 116:digiBassPreamp.cpp ****         float b2 = A * ((A + 1) - (A - 1) * cosw0 - 2 * sqrtf(A) * alpha);
ARM GAS  C:\Users\Andrew\AppData\Local\Temp\ccOg8wBy.s 			page 38


 1146              		.loc 6 116 22 view .LVU333
 1147 0298 78EE08CA 		vadd.f32	s25, s16, s16
 119:digiBassPreamp.cpp ****         float a2 = (A + 1) + (A - 1) * cosw0 - 2 * sqrtf(A) * alpha;
 1148              		.loc 6 119 15 view .LVU334
 1149 029c B8EE007A 		vmov.f32	s14, #-2.0e+0
 118:digiBassPreamp.cpp ****         float a1 = -2 * ((A - 1) + (A + 1) * cosw0);
 1150              		.loc 6 118 63 view .LVU335
 1151 02a0 F0EE69AA 		vmov.f32	s21, s19
 117:digiBassPreamp.cpp ****         float a0 = (A + 1) + (A - 1) * cosw0 + 2 * sqrtf(A) * alpha;
 1152              		.loc 6 117 51 view .LVU336
 1153 02a4 F1EE4CDA 		vneg.f32	s27, s24
 116:digiBassPreamp.cpp ****         float b2 = A * ((A + 1) - (A - 1) * cosw0 - 2 * sqrtf(A) * alpha);
 1154              		.loc 6 116 15 view .LVU337
 1155 02a8 6CEEA6CA 		vmul.f32	s25, s25, s13
 119:digiBassPreamp.cpp ****         float a2 = (A + 1) + (A - 1) * cosw0 - 2 * sqrtf(A) * alpha;
 1156              		.loc 6 119 15 view .LVU338
 1157 02ac 68EE878A 		vmul.f32	s17, s17, s14
 115:digiBassPreamp.cpp ****         float b1 = 2 * A * ((A - 1) - (A + 1) * cosw0);
 1158              		.loc 6 115 55 view .LVU339
 1159 02b0 37EEA70A 		vadd.f32	s0, s15, s15
 1160              	.LVL64:
 115:digiBassPreamp.cpp ****         float b1 = 2 * A * ((A - 1) - (A + 1) * cosw0);
 1161              		.loc 6 115 51 view .LVU340
 1162 02b4 ACEE00DA 		vfma.f32	s26, s24, s0
 117:digiBassPreamp.cpp ****         float a0 = (A + 1) + (A - 1) * cosw0 + 2 * sqrtf(A) * alpha;
 1163              		.loc 6 117 51 view .LVU341
 1164 02b8 ACEE40BA 		vfms.f32	s22, s24, s0
 118:digiBassPreamp.cpp ****         float a1 = -2 * ((A - 1) + (A + 1) * cosw0);
 1165              		.loc 6 118 63 view .LVU342
 1166 02bc ECEE00AA 		vfma.f32	s21, s24, s0
 115:digiBassPreamp.cpp ****         float b1 = 2 * A * ((A - 1) - (A + 1) * cosw0);
 1167              		.loc 6 115 73 view .LVU343
 1168 02c0 28EE0DDA 		vmul.f32	s26, s16, s26
 1169              	.LVL65:
 116:digiBassPreamp.cpp ****         float b2 = A * ((A + 1) - (A - 1) * cosw0 - 2 * sqrtf(A) * alpha);
 1170              		.loc 6 116 9 is_stmt 1 view .LVU344
 117:digiBassPreamp.cpp ****         float a0 = (A + 1) + (A - 1) * cosw0 + 2 * sqrtf(A) * alpha;
 1171              		.loc 6 117 9 view .LVU345
 117:digiBassPreamp.cpp ****         float a0 = (A + 1) + (A - 1) * cosw0 + 2 * sqrtf(A) * alpha;
 1172              		.loc 6 117 73 is_stmt 0 view .LVU346
 1173 02c4 28EE0BBA 		vmul.f32	s22, s16, s22
 1174              	.LVL66:
 118:digiBassPreamp.cpp ****         float a1 = -2 * ((A - 1) + (A + 1) * cosw0);
 1175              		.loc 6 118 9 is_stmt 1 view .LVU347
 119:digiBassPreamp.cpp ****         float a2 = (A + 1) + (A - 1) * cosw0 - 2 * sqrtf(A) * alpha;
 1176              		.loc 6 119 9 view .LVU348
 120:digiBassPreamp.cpp **** 
 1177              		.loc 6 120 9 view .LVU349
 1178              	.L19:
 120:digiBassPreamp.cpp **** 
 1179              		.loc 6 120 63 is_stmt 0 discriminator 1 view .LVU350
 1180 02c8 F0EE697A 		vmov.f32	s15, s19
 1181              	.LBE362:
 1182              	.LBE361:
 1183              	.LBE360:
 1184              	.LBE359:
 1185              	.LBB414:
ARM GAS  C:\Users\Andrew\AppData\Local\Temp\ccOg8wBy.s 			page 39


 1186              	.LBB415:
  85:digiBassPreamp.cpp ****     }
 1187              		.loc 6 85 16 discriminator 1 view .LVU351
 1188 02cc D4ED17BA 		vldr.32	s23, [r4, #92]
 1189              	.LVL67:
  85:digiBassPreamp.cpp ****     }
 1190              		.loc 6 85 16 discriminator 1 view .LVU352
 1191              	.LBE415:
 1192              	.LBE414:
 1193              	.LBB458:
 1194              	.LBB405:
 1195              	.LBB387:
 1196              	.LBB377:
 122:digiBassPreamp.cpp ****     }
 1197              		.loc 6 122 20 discriminator 1 view .LVU353
 1198 02d0 CCEEAA5A 		vdiv.f32	s11, s25, s21
 1199              	.LBE377:
 1200              	.LBE387:
 1201              	.LBE405:
 1202              	.LBE458:
 1203              	.LBB459:
 1204              	.LBB448:
 1205              	.LBB416:
 1206              	.LBB417:
 144:digiBassPreamp.cpp ****         float w0    = 2.0f * M_PI * freq / sr_;
 1207              		.loc 6 144 27 discriminator 1 view .LVU354
 1208 02d4 5FED17CA 		vldr.32	s25, .L30+76
 1209              	.LVL68:
 144:digiBassPreamp.cpp ****         float w0    = 2.0f * M_PI * freq / sr_;
 1210              		.loc 6 144 27 discriminator 1 view .LVU355
 1211              	.LBE417:
 1212              	.LBE416:
  85:digiBassPreamp.cpp ****     }
 1213              		.loc 6 85 16 discriminator 1 view .LVU356
 1214 02d8 94ED1ACA 		vldr.32	s24, [r4, #104]
 1215              	.LVL69:
  85:digiBassPreamp.cpp ****     }
 1216              		.loc 6 85 16 discriminator 1 view .LVU357
 1217              	.LBE448:
 1218              	.LBE459:
 1219              	.LBB460:
 1220              	.LBB406:
 1221              	.LBB388:
 1222              	.LBB378:
 120:digiBassPreamp.cpp **** 
 1223              		.loc 6 120 63 discriminator 1 view .LVU358
 1224 02dc EDEE807A 		vfma.f32	s15, s27, s0
 1225              	.LVL70:
 122:digiBassPreamp.cpp ****     }
 1226              		.loc 6 122 9 is_stmt 1 discriminator 1 view .LVU359
 1227              	.LBB363:
 1228              	.LBI363:
  27:digiBassPreamp.cpp ****     {
 1229              		.loc 6 27 10 discriminator 1 view .LVU360
 1230              	.LBB364:
  29:digiBassPreamp.cpp ****         a1 = _a1;
 1231              		.loc 6 29 9 discriminator 1 view .LVU361
ARM GAS  C:\Users\Andrew\AppData\Local\Temp\ccOg8wBy.s 			page 40


 1232              	.LBE364:
 1233              	.LBE363:
 122:digiBassPreamp.cpp ****     }
 1234              		.loc 6 122 20 is_stmt 0 discriminator 1 view .LVU362
 1235 02e0 8DEE2A5A 		vdiv.f32	s10, s26, s21
 1236              	.LVL71:
 122:digiBassPreamp.cpp ****     }
 1237              		.loc 6 122 20 discriminator 1 view .LVU363
 1238 02e4 8BEE2A6A 		vdiv.f32	s12, s22, s21
 1239              	.LVL72:
 122:digiBassPreamp.cpp ****     }
 1240              		.loc 6 122 20 discriminator 1 view .LVU364
 1241 02e8 C8EEAA6A 		vdiv.f32	s13, s17, s21
 1242              	.LVL73:
 1243              	.LBB371:
 1244              	.LBB365:
  30:digiBassPreamp.cpp ****         a2 = _a2;
 1245              		.loc 6 30 12 discriminator 1 view .LVU365
 1246 02ec C4ED025A 		vstr.32	s11, [r4, #8]
 1247              	.LBE365:
 1248              	.LBE371:
 122:digiBassPreamp.cpp ****     }
 1249              		.loc 6 122 20 discriminator 1 view .LVU366
 1250 02f0 87EEAA7A 		vdiv.f32	s14, s15, s21
 1251              	.LVL74:
 1252              	.LBB372:
 1253              	.LBB366:
  29:digiBassPreamp.cpp ****         a1 = _a1;
 1254              		.loc 6 29 12 discriminator 1 view .LVU367
 1255 02f4 84ED015A 		vstr.32	s10, [r4, #4]
 1256              	.LBE366:
 1257              	.LBE372:
 1258              	.LBE378:
 1259              	.LBE388:
 1260              	.LBE406:
 1261              	.LBE460:
 1262              	.LBB461:
 1263              	.LBB449:
 1264              	.LBB430:
 1265              	.LBB431:
 102:digiBassPreamp.cpp ****     }
 1266              		.loc 6 102 22 discriminator 1 view .LVU368
 1267 02f8 F6EE008A 		vmov.f32	s17, #5.0e-1
 1268              	.LVL75:
 102:digiBassPreamp.cpp ****     }
 1269              		.loc 6 102 38 discriminator 1 view .LVU369
 1270 02fc F2EE084A 		vmov.f32	s9, #1.2e+1
 1271              	.LBE431:
 1272              	.LBE430:
 1273              	.LBE449:
 1274              	.LBE461:
 1275              	.LBB462:
 1276              	.LBB407:
 1277              	.LBB389:
 1278              	.LBB379:
 1279              	.LBB373:
 1280              	.LBB367:
ARM GAS  C:\Users\Andrew\AppData\Local\Temp\ccOg8wBy.s 			page 41


  31:digiBassPreamp.cpp ****         b1 = _b1;
 1281              		.loc 6 31 12 discriminator 1 view .LVU370
 1282 0300 84ED036A 		vstr.32	s12, [r4, #12]
 1283              	.LBE367:
 1284              	.LBE373:
 1285              	.LBE379:
 1286              	.LBE389:
 1287              	.LBE407:
 1288              	.LBE462:
 1289              	.LBB463:
 1290              	.LBB450:
 1291              	.LBB436:
 1292              	.LBB422:
 144:digiBassPreamp.cpp ****         float w0    = 2.0f * M_PI * freq / sr_;
 1293              		.loc 6 144 27 discriminator 1 view .LVU371
 1294 0304 B2EE040A 		vmov.f32	s0, #1.0e+1
 1295              	.LBE422:
 1296              	.LBE436:
 1297              	.LBE450:
 1298              	.LBE463:
 1299              	.LBB464:
 1300              	.LBB408:
 1301              	.LBB390:
 1302              	.LBB380:
 1303              	.LBB374:
 1304              	.LBB368:
  30:digiBassPreamp.cpp ****         a2 = _a2;
 1305              		.loc 6 30 9 is_stmt 1 discriminator 1 view .LVU372
  31:digiBassPreamp.cpp ****         b1 = _b1;
 1306              		.loc 6 31 9 discriminator 1 view .LVU373
  32:digiBassPreamp.cpp ****         b2 = _b2;
 1307              		.loc 6 32 9 discriminator 1 view .LVU374
 1308              	.LBE368:
 1309              	.LBE374:
 1310              	.LBE380:
 1311              	.LBE390:
 1312              	.LBE408:
 1313              	.LBE464:
 1314              	.LBB465:
 1315              	.LBB451:
 1316              	.LBB437:
 1317              	.LBB432:
 102:digiBassPreamp.cpp ****     }
 1318              		.loc 6 102 22 is_stmt 0 discriminator 1 view .LVU375
 1319 0308 78EEC90A 		vsub.f32	s1, s17, s18
 1320              	.LBE432:
 1321              	.LBE437:
 1322              	.LBB438:
 1323              	.LBB423:
 149:digiBassPreamp.cpp ****         float b1 = -2 * cosw0;
 1324              		.loc 6 149 15 discriminator 1 view .LVU376
 1325 030c B7EE008A 		vmov.f32	s16, #1.0e+0
 1326              	.LVL76:
 150:digiBassPreamp.cpp ****         float b2 = 1 - alpha * A;
 1327              		.loc 6 150 15 discriminator 1 view .LVU377
 1328 0310 F8EE00AA 		vmov.f32	s21, #-2.0e+0
 1329              	.LVL77:
ARM GAS  C:\Users\Andrew\AppData\Local\Temp\ccOg8wBy.s 			page 42


 150:digiBassPreamp.cpp ****         float b2 = 1 - alpha * A;
 1330              		.loc 6 150 15 discriminator 1 view .LVU378
 1331              	.LBE423:
 1332              	.LBE438:
 1333              	.LBB439:
 1334              	.LBB433:
 102:digiBassPreamp.cpp ****     }
 1335              		.loc 6 102 29 discriminator 1 view .LVU379
 1336 0314 70EEA00A 		vadd.f32	s1, s1, s1
 1337              	.LBE433:
 1338              	.LBE439:
 1339              	.LBE451:
 1340              	.LBE465:
 1341              	.LBB466:
 1342              	.LBB409:
 1343              	.LBB391:
 1344              	.LBB381:
 1345              	.LBB375:
 1346              	.LBB369:
  32:digiBassPreamp.cpp ****         b2 = _b2;
 1347              		.loc 6 32 12 discriminator 1 view .LVU380
 1348 0318 C4ED046A 		vstr.32	s13, [r4, #16]
  33:digiBassPreamp.cpp ****     }
 1349              		.loc 6 33 9 is_stmt 1 discriminator 1 view .LVU381
 1350              	.LBE369:
 1351              	.LBE375:
 1352              	.LBE381:
 1353              	.LBE391:
 1354              	.LBE409:
 1355              	.LBE466:
 1356              	.LBB467:
 1357              	.LBB452:
 1358              	.LBB440:
 1359              	.LBB424:
 145:digiBassPreamp.cpp ****         float alpha = sinf(w0) / (2.0f * Q);
 1360              		.loc 6 145 35 is_stmt 0 discriminator 1 view .LVU382
 1361 031c 9FEDD49B 		vldr.64	d9, .L32
 1362              	.LVL78:
 145:digiBassPreamp.cpp ****         float alpha = sinf(w0) / (2.0f * Q);
 1363              		.loc 6 145 35 discriminator 1 view .LVU383
 1364              	.LBE424:
 1365              	.LBE440:
 1366              	.LBB441:
 1367              	.LBB434:
 102:digiBassPreamp.cpp ****     }
 1368              		.loc 6 102 38 discriminator 1 view .LVU384
 1369 0320 60EEA40A 		vmul.f32	s1, s1, s9
 1370              	.LBE434:
 1371              	.LBE441:
 1372              	.LBE452:
 1373              	.LBE467:
 1374              	.LBB468:
 1375              	.LBB410:
 1376              	.LBB392:
 1377              	.LBB382:
 1378              	.LBB376:
 1379              	.LBB370:
ARM GAS  C:\Users\Andrew\AppData\Local\Temp\ccOg8wBy.s 			page 43


  33:digiBassPreamp.cpp ****     }
 1380              		.loc 6 33 12 discriminator 1 view .LVU385
 1381 0324 84ED057A 		vstr.32	s14, [r4, #20]
 1382              	.LVL79:
  33:digiBassPreamp.cpp ****     }
 1383              		.loc 6 33 12 discriminator 1 view .LVU386
 1384              	.LBE370:
 1385              	.LBE376:
 1386              	.LBE382:
 1387              	.LBE392:
 1388              	.LBE410:
 1389              	.LBE468:
 196:digiBassPreamp.cpp **** 
 197:digiBassPreamp.cpp ****     while(1)
 198:digiBassPreamp.cpp ****     {
 199:digiBassPreamp.cpp ****         int value    = hw.adc.Get(0);
 200:digiBassPreamp.cpp ****         int floatVal = hw.adc.GetFloat(0) * 1000;
 201:digiBassPreamp.cpp ****         hw.PrintLine("ADC Value: %d", value);
 202:digiBassPreamp.cpp ****         //
 203:digiBassPreamp.cpp ****         hw.PrintLine("ADC Float: %d", floatVal);
 204:digiBassPreamp.cpp **** 
 205:digiBassPreamp.cpp ****         float bass   = hw.adc.GetFloat(0);
 206:digiBassPreamp.cpp ****         float mid    = hw.adc.GetFloat(1);
 207:digiBassPreamp.cpp ****         float treble = hw.adc.GetFloat(2);
 208:digiBassPreamp.cpp **** 
 209:digiBassPreamp.cpp ****         eq.SetBass(bass);
 210:digiBassPreamp.cpp ****         eq.SetMid(mid);
 1390              		.loc 6 210 9 is_stmt 1 discriminator 1 view .LVU387
 1391              	.LBB469:
 1392              	.LBI414:
  82:digiBassPreamp.cpp ****     {
 1393              		.loc 6 82 10 discriminator 1 view .LVU388
 1394              	.LBB453:
  84:digiBassPreamp.cpp ****         SetPeak(mid, mid_freq_, mid_q_, db);
 1395              		.loc 6 84 9 discriminator 1 view .LVU389
 1396              	.LBB442:
 1397              	.LBI430:
 100:digiBassPreamp.cpp ****     {
 1398              		.loc 6 100 11 discriminator 1 view .LVU390
 1399              	.LBB435:
 102:digiBassPreamp.cpp ****     }
 1400              		.loc 6 102 9 discriminator 1 view .LVU391
 102:digiBassPreamp.cpp ****     }
 1401              		.loc 6 102 9 is_stmt 0 discriminator 1 view .LVU392
 1402              	.LBE435:
 1403              	.LBE442:
  85:digiBassPreamp.cpp ****     }
 1404              		.loc 6 85 9 is_stmt 1 discriminator 1 view .LVU393
 1405              	.LBB443:
 1406              	.LBI416:
 142:digiBassPreamp.cpp ****     {
 1407              		.loc 6 142 10 discriminator 1 view .LVU394
 1408              	.LBB425:
 144:digiBassPreamp.cpp ****         float w0    = 2.0f * M_PI * freq / sr_;
 1409              		.loc 6 144 9 discriminator 1 view .LVU395
 144:digiBassPreamp.cpp ****         float w0    = 2.0f * M_PI * freq / sr_;
 1410              		.loc 6 144 27 is_stmt 0 discriminator 1 view .LVU396
ARM GAS  C:\Users\Andrew\AppData\Local\Temp\ccOg8wBy.s 			page 44


 1411 0328 C0EEAC0A 		vdiv.f32	s1, s1, s25
 1412 032c FFF7FEFF 		bl	powf
 1413              	.LVL80:
 145:digiBassPreamp.cpp ****         float alpha = sinf(w0) / (2.0f * Q);
 1414              		.loc 6 145 44 discriminator 1 view .LVU397
 1415 0330 94ED006A 		vldr.32	s12, [r4]
 145:digiBassPreamp.cpp ****         float alpha = sinf(w0) / (2.0f * Q);
 1416              		.loc 6 145 37 discriminator 1 view .LVU398
 1417 0334 B7EEEB7A 		vcvt.f64.f32	d7, s23
 145:digiBassPreamp.cpp ****         float alpha = sinf(w0) / (2.0f * Q);
 1418              		.loc 6 145 44 discriminator 1 view .LVU399
 1419 0338 B7EEC66A 		vcvt.f64.f32	d6, s12
 144:digiBassPreamp.cpp ****         float w0    = 2.0f * M_PI * freq / sr_;
 1420              		.loc 6 144 27 discriminator 1 view .LVU400
 1421 033c B0EE40BA 		vmov.f32	s22, s0
 1422              	.LVL81:
 145:digiBassPreamp.cpp ****         float alpha = sinf(w0) / (2.0f * Q);
 1423              		.loc 6 145 9 is_stmt 1 discriminator 1 view .LVU401
 145:digiBassPreamp.cpp ****         float alpha = sinf(w0) / (2.0f * Q);
 1424              		.loc 6 145 35 is_stmt 0 discriminator 1 view .LVU402
 1425 0340 27EE097B 		vmul.f64	d7, d7, d9
 146:digiBassPreamp.cpp ****         float cosw0 = cosf(w0);
 1426              		.loc 6 146 40 discriminator 1 view .LVU403
 1427 0344 3CEE0CCA 		vadd.f32	s24, s24, s24
 1428              	.LVL82:
 146:digiBassPreamp.cpp ****         float cosw0 = cosf(w0);
 1429              		.loc 6 146 40 discriminator 1 view .LVU404
 1430              	.LBE425:
 1431              	.LBE443:
 1432              	.LBE453:
 1433              	.LBE469:
 1434              	.LBB470:
 1435              	.LBB471:
 1436              	.LBB472:
 1437              	.LBB473:
 102:digiBassPreamp.cpp ****     }
 1438              		.loc 6 102 22 discriminator 1 view .LVU405
 1439 0348 78EECA8A 		vsub.f32	s17, s17, s20
 1440              	.LBE473:
 1441              	.LBE472:
 1442              	.LBE471:
 1443              	.LBE470:
 1444              	.LBB504:
 1445              	.LBB454:
 1446              	.LBB444:
 1447              	.LBB426:
 145:digiBassPreamp.cpp ****         float alpha = sinf(w0) / (2.0f * Q);
 1448              		.loc 6 145 42 discriminator 1 view .LVU406
 1449 034c 87EE060B 		vdiv.f64	d0, d7, d6
 1450              	.LVL83:
 145:digiBassPreamp.cpp ****         float alpha = sinf(w0) / (2.0f * Q);
 1451              		.loc 6 145 42 discriminator 1 view .LVU407
 1452              	.LBE426:
 1453              	.LBE444:
 1454              	.LBE454:
 1455              	.LBE504:
 1456              	.LBB505:
ARM GAS  C:\Users\Andrew\AppData\Local\Temp\ccOg8wBy.s 			page 45


 1457              	.LBB498:
 1458              	.LBB478:
 1459              	.LBB474:
 102:digiBassPreamp.cpp ****     }
 1460              		.loc 6 102 29 discriminator 1 view .LVU408
 1461 0350 78EEA88A 		vadd.f32	s17, s17, s17
 1462              	.LBE474:
 1463              	.LBE478:
 1464              	.LBE498:
 1465              	.LBE505:
 1466              	.LBB506:
 1467              	.LBB455:
 1468              	.LBB445:
 1469              	.LBB427:
 145:digiBassPreamp.cpp ****         float alpha = sinf(w0) / (2.0f * Q);
 1470              		.loc 6 145 15 discriminator 1 view .LVU409
 1471 0354 F7EEC0BB 		vcvt.f32.f64	s23, d0
 1472              	.LVL84:
 146:digiBassPreamp.cpp ****         float cosw0 = cosf(w0);
 1473              		.loc 6 146 9 is_stmt 1 discriminator 1 view .LVU410
 146:digiBassPreamp.cpp ****         float cosw0 = cosf(w0);
 1474              		.loc 6 146 27 is_stmt 0 discriminator 1 view .LVU411
 1475 0358 B0EE6B0A 		vmov.f32	s0, s23
 1476 035c FFF7FEFF 		bl	sinf
 1477              	.LVL85:
 1478 0360 F0EE407A 		vmov.f32	s15, s0
 147:digiBassPreamp.cpp **** 
 1479              		.loc 6 147 27 discriminator 1 view .LVU412
 1480 0364 B0EE6B0A 		vmov.f32	s0, s23
 146:digiBassPreamp.cpp ****         float cosw0 = cosf(w0);
 1481              		.loc 6 146 15 discriminator 1 view .LVU413
 1482 0368 C7EE8CBA 		vdiv.f32	s23, s15, s24
 1483              	.LVL86:
 147:digiBassPreamp.cpp **** 
 1484              		.loc 6 147 9 is_stmt 1 discriminator 1 view .LVU414
 147:digiBassPreamp.cpp **** 
 1485              		.loc 6 147 27 is_stmt 0 discriminator 1 view .LVU415
 1486 036c FFF7FEFF 		bl	cosf
 1487              	.LVL87:
 149:digiBassPreamp.cpp ****         float b1 = -2 * cosw0;
 1488              		.loc 6 149 9 is_stmt 1 discriminator 1 view .LVU416
 1489              	.LBE427:
 1490              	.LBE445:
 1491              	.LBE455:
 1492              	.LBE506:
 1493              	.LBB507:
 1494              	.LBB499:
  91:digiBassPreamp.cpp ****     }
 1495              		.loc 6 91 21 is_stmt 0 discriminator 1 view .LVU417
 1496 0370 94ED18AA 		vldr.32	s20, [r4, #96]
 1497              	.LVL88:
  91:digiBassPreamp.cpp ****     }
 1498              		.loc 6 91 21 discriminator 1 view .LVU418
 1499 0374 94ED1BCA 		vldr.32	s24, [r4, #108]
 1500              	.LBE499:
 1501              	.LBE507:
 1502              	.LBB508:
ARM GAS  C:\Users\Andrew\AppData\Local\Temp\ccOg8wBy.s 			page 46


 1503              	.LBB456:
 1504              	.LBB446:
 1505              	.LBB428:
 149:digiBassPreamp.cpp ****         float b1 = -2 * cosw0;
 1506              		.loc 6 149 15 discriminator 1 view .LVU419
 1507 0378 F0EE485A 		vmov.f32	s11, s16
 151:digiBassPreamp.cpp ****         float a0 = 1 + alpha / A;
 1508              		.loc 6 151 15 discriminator 1 view .LVU420
 1509 037c F0EE484A 		vmov.f32	s9, s16
 150:digiBassPreamp.cpp ****         float b2 = 1 - alpha * A;
 1510              		.loc 6 150 15 discriminator 1 view .LVU421
 1511 0380 60EE2A6A 		vmul.f32	s13, s0, s21
 1512              	.LBE428:
 1513              	.LBE446:
 1514              	.LBE456:
 1515              	.LBE508:
 1516              	.LBB509:
 1517              	.LBB500:
 1518              	.LBB479:
 1519              	.LBB475:
 102:digiBassPreamp.cpp ****     }
 1520              		.loc 6 102 38 discriminator 1 view .LVU422
 1521 0384 F2EE0E0A 		vmov.f32	s1, #1.5e+1
 1522              	.LBE475:
 1523              	.LBE479:
 1524              	.LBB480:
 1525              	.LBB481:
 127:digiBassPreamp.cpp ****         float w0    = 2.0f * M_PI * freq / sr_;
 1526              		.loc 6 127 27 discriminator 1 view .LVU423
 1527 0388 B2EE040A 		vmov.f32	s0, #1.0e+1
 1528              	.LVL89:
 127:digiBassPreamp.cpp ****         float w0    = 2.0f * M_PI * freq / sr_;
 1529              		.loc 6 127 27 discriminator 1 view .LVU424
 1530              	.LBE481:
 1531              	.LBE480:
 1532              	.LBB492:
 1533              	.LBB476:
 102:digiBassPreamp.cpp ****     }
 1534              		.loc 6 102 38 discriminator 1 view .LVU425
 1535 038c 68EEA00A 		vmul.f32	s1, s17, s1
 1536              	.LBE476:
 1537              	.LBE492:
 1538              	.LBB493:
 1539              	.LBB488:
 127:digiBassPreamp.cpp ****         float w0    = 2.0f * M_PI * freq / sr_;
 1540              		.loc 6 127 27 discriminator 1 view .LVU426
 1541 0390 C0EEAC0A 		vdiv.f32	s1, s1, s25
 1542              	.LBE488:
 1543              	.LBE493:
 1544              	.LBE500:
 1545              	.LBE509:
 1546              	.LBB510:
 1547              	.LBB457:
 1548              	.LBB447:
 1549              	.LBB429:
 152:digiBassPreamp.cpp ****         float a1 = -2 * cosw0;
 1550              		.loc 6 152 30 discriminator 1 view .LVU427
ARM GAS  C:\Users\Andrew\AppData\Local\Temp\ccOg8wBy.s 			page 47


 1551 0394 8BEE8B7A 		vdiv.f32	s14, s23, s22
 151:digiBassPreamp.cpp ****         float a0 = 1 + alpha / A;
 1552              		.loc 6 151 15 discriminator 1 view .LVU428
 1553 0398 EBEE6B4A 		vfms.f32	s9, s22, s23
 149:digiBassPreamp.cpp ****         float b1 = -2 * cosw0;
 1554              		.loc 6 149 15 discriminator 1 view .LVU429
 1555 039c EBEE2B5A 		vfma.f32	s11, s22, s23
 1556              	.LVL90:
 150:digiBassPreamp.cpp ****         float b2 = 1 - alpha * A;
 1557              		.loc 6 150 9 is_stmt 1 discriminator 1 view .LVU430
 151:digiBassPreamp.cpp ****         float a0 = 1 + alpha / A;
 1558              		.loc 6 151 9 discriminator 1 view .LVU431
 152:digiBassPreamp.cpp ****         float a1 = -2 * cosw0;
 1559              		.loc 6 152 9 discriminator 1 view .LVU432
 152:digiBassPreamp.cpp ****         float a1 = -2 * cosw0;
 1560              		.loc 6 152 15 is_stmt 0 discriminator 1 view .LVU433
 1561 03a0 77EE087A 		vadd.f32	s15, s14, s16
 1562              	.LVL91:
 153:digiBassPreamp.cpp ****         float a2 = 1 - alpha / A;
 1563              		.loc 6 153 9 is_stmt 1 discriminator 1 view .LVU434
 154:digiBassPreamp.cpp **** 
 1564              		.loc 6 154 9 discriminator 1 view .LVU435
 156:digiBassPreamp.cpp ****     }
 1565              		.loc 6 156 9 discriminator 1 view .LVU436
 154:digiBassPreamp.cpp **** 
 1566              		.loc 6 154 15 is_stmt 0 discriminator 1 view .LVU437
 1567 03a4 38EE477A 		vsub.f32	s14, s16, s14
 1568              	.LVL92:
 156:digiBassPreamp.cpp ****     }
 1569              		.loc 6 156 20 discriminator 1 view .LVU438
 1570 03a8 86EEA76A 		vdiv.f32	s12, s13, s15
 1571              	.LVL93:
 1572              	.LBB418:
 1573              	.LBI418:
  27:digiBassPreamp.cpp ****     {
 1574              		.loc 6 27 10 is_stmt 1 discriminator 1 view .LVU439
 1575              	.LBB419:
  29:digiBassPreamp.cpp ****         a1 = _a1;
 1576              		.loc 6 29 9 discriminator 1 view .LVU440
 1577              	.LBE419:
 1578              	.LBE418:
 156:digiBassPreamp.cpp ****     }
 1579              		.loc 6 156 20 is_stmt 0 discriminator 1 view .LVU441
 1580 03ac 85EEA75A 		vdiv.f32	s10, s11, s15
 1581              	.LVL94:
 156:digiBassPreamp.cpp ****     }
 1582              		.loc 6 156 20 discriminator 1 view .LVU442
 1583 03b0 C7EE276A 		vdiv.f32	s13, s14, s15
 1584 03b4 C4EEA75A 		vdiv.f32	s11, s9, s15
 1585              	.LVL95:
 1586              	.LBB421:
 1587              	.LBB420:
  30:digiBassPreamp.cpp ****         a2 = _a2;
 1588              		.loc 6 30 12 discriminator 1 view .LVU443
 1589 03b8 84ED096A 		vstr.32	s12, [r4, #36]
  32:digiBassPreamp.cpp ****         b2 = _b2;
 1590              		.loc 6 32 12 discriminator 1 view .LVU444
ARM GAS  C:\Users\Andrew\AppData\Local\Temp\ccOg8wBy.s 			page 48


 1591 03bc 84ED0B6A 		vstr.32	s12, [r4, #44]
  29:digiBassPreamp.cpp ****         a1 = _a1;
 1592              		.loc 6 29 12 discriminator 1 view .LVU445
 1593 03c0 84ED085A 		vstr.32	s10, [r4, #32]
  30:digiBassPreamp.cpp ****         a2 = _a2;
 1594              		.loc 6 30 9 is_stmt 1 discriminator 1 view .LVU446
  31:digiBassPreamp.cpp ****         b1 = _b1;
 1595              		.loc 6 31 9 discriminator 1 view .LVU447
  33:digiBassPreamp.cpp ****     }
 1596              		.loc 6 33 12 is_stmt 0 discriminator 1 view .LVU448
 1597 03c4 C4ED0C6A 		vstr.32	s13, [r4, #48]
  31:digiBassPreamp.cpp ****         b1 = _b1;
 1598              		.loc 6 31 12 discriminator 1 view .LVU449
 1599 03c8 C4ED0A5A 		vstr.32	s11, [r4, #40]
  32:digiBassPreamp.cpp ****         b2 = _b2;
 1600              		.loc 6 32 9 is_stmt 1 discriminator 1 view .LVU450
  33:digiBassPreamp.cpp ****     }
 1601              		.loc 6 33 9 discriminator 1 view .LVU451
 1602              	.LVL96:
  33:digiBassPreamp.cpp ****     }
 1603              		.loc 6 33 9 is_stmt 0 discriminator 1 view .LVU452
 1604              	.LBE420:
 1605              	.LBE421:
 1606              	.LBE429:
 1607              	.LBE447:
 1608              	.LBE457:
 1609              	.LBE510:
 211:digiBassPreamp.cpp ****         eq.SetTreble(treble);
 1610              		.loc 6 211 9 is_stmt 1 discriminator 1 view .LVU453
 1611              	.LBB511:
 1612              	.LBI470:
  88:digiBassPreamp.cpp ****     {
 1613              		.loc 6 88 10 discriminator 1 view .LVU454
 1614              	.LBB501:
  90:digiBassPreamp.cpp ****         SetHighShelf(treble, treble_freq_, treble_q_, db);
 1615              		.loc 6 90 9 discriminator 1 view .LVU455
 1616              	.LBB494:
 1617              	.LBI472:
 100:digiBassPreamp.cpp ****     {
 1618              		.loc 6 100 11 discriminator 1 view .LVU456
 1619              	.LBB477:
 102:digiBassPreamp.cpp ****     }
 1620              		.loc 6 102 9 discriminator 1 view .LVU457
 102:digiBassPreamp.cpp ****     }
 1621              		.loc 6 102 9 is_stmt 0 discriminator 1 view .LVU458
 1622              	.LBE477:
 1623              	.LBE494:
  91:digiBassPreamp.cpp ****     }
 1624              		.loc 6 91 9 is_stmt 1 discriminator 1 view .LVU459
 1625              	.LBB495:
 1626              	.LBI480:
 125:digiBassPreamp.cpp ****     {
 1627              		.loc 6 125 10 discriminator 1 view .LVU460
 1628              	.LBB489:
 127:digiBassPreamp.cpp ****         float w0    = 2.0f * M_PI * freq / sr_;
 1629              		.loc 6 127 9 discriminator 1 view .LVU461
 127:digiBassPreamp.cpp ****         float w0    = 2.0f * M_PI * freq / sr_;
ARM GAS  C:\Users\Andrew\AppData\Local\Temp\ccOg8wBy.s 			page 49


 1630              		.loc 6 127 27 is_stmt 0 discriminator 1 view .LVU462
 1631 03cc FFF7FEFF 		bl	powf
 1632              	.LVL97:
 128:digiBassPreamp.cpp ****         float alpha = sinf(w0) / (2.0f * Q);
 1633              		.loc 6 128 37 discriminator 1 view .LVU463
 1634 03d0 B7EECA7A 		vcvt.f64.f32	d7, s20
 128:digiBassPreamp.cpp ****         float alpha = sinf(w0) / (2.0f * Q);
 1635              		.loc 6 128 44 discriminator 1 view .LVU464
 1636 03d4 94ED006A 		vldr.32	s12, [r4]
 132:digiBassPreamp.cpp ****         float b1 = -2 * A * ((A - 1) + (A + 1) * cosw0);
 1637              		.loc 6 132 38 discriminator 1 view .LVU465
 1638 03d8 70EE488A 		vsub.f32	s17, s0, s16
 127:digiBassPreamp.cpp ****         float w0    = 2.0f * M_PI * freq / sr_;
 1639              		.loc 6 127 27 discriminator 1 view .LVU466
 1640 03dc F0EE40BA 		vmov.f32	s23, s0
 1641              	.LVL98:
 128:digiBassPreamp.cpp ****         float alpha = sinf(w0) / (2.0f * Q);
 1642              		.loc 6 128 9 is_stmt 1 discriminator 1 view .LVU467
 128:digiBassPreamp.cpp ****         float alpha = sinf(w0) / (2.0f * Q);
 1643              		.loc 6 128 35 is_stmt 0 discriminator 1 view .LVU468
 1644 03e0 27EE097B 		vmul.f64	d7, d7, d9
 128:digiBassPreamp.cpp ****         float alpha = sinf(w0) / (2.0f * Q);
 1645              		.loc 6 128 44 discriminator 1 view .LVU469
 1646 03e4 B7EEC66A 		vcvt.f64.f32	d6, s12
 132:digiBassPreamp.cpp ****         float b1 = -2 * A * ((A - 1) + (A + 1) * cosw0);
 1647              		.loc 6 132 28 discriminator 1 view .LVU470
 1648 03e8 30EE088A 		vadd.f32	s16, s0, s16
 129:digiBassPreamp.cpp ****         float cosw0 = cosf(w0);
 1649              		.loc 6 129 40 discriminator 1 view .LVU471
 1650 03ec 3CEE0CCA 		vadd.f32	s24, s24, s24
 1651              	.LVL99:
 128:digiBassPreamp.cpp ****         float alpha = sinf(w0) / (2.0f * Q);
 1652              		.loc 6 128 42 discriminator 1 view .LVU472
 1653 03f0 87EE069B 		vdiv.f64	d9, d7, d6
 128:digiBassPreamp.cpp ****         float alpha = sinf(w0) / (2.0f * Q);
 1654              		.loc 6 128 15 discriminator 1 view .LVU473
 1655 03f4 B7EEC99B 		vcvt.f32.f64	s18, d9
 1656              	.LVL100:
 129:digiBassPreamp.cpp ****         float cosw0 = cosf(w0);
 1657              		.loc 6 129 9 is_stmt 1 discriminator 1 view .LVU474
 129:digiBassPreamp.cpp ****         float cosw0 = cosf(w0);
 1658              		.loc 6 129 27 is_stmt 0 discriminator 1 view .LVU475
 1659 03f8 B0EE490A 		vmov.f32	s0, s18
 1660              	.LVL101:
 129:digiBassPreamp.cpp ****         float cosw0 = cosf(w0);
 1661              		.loc 6 129 27 discriminator 1 view .LVU476
 1662 03fc FFF7FEFF 		bl	sinf
 1663              	.LVL102:
 1664 0400 F0EE407A 		vmov.f32	s15, s0
 130:digiBassPreamp.cpp **** 
 1665              		.loc 6 130 27 discriminator 1 view .LVU477
 1666 0404 B0EE490A 		vmov.f32	s0, s18
 129:digiBassPreamp.cpp ****         float cosw0 = cosf(w0);
 1667              		.loc 6 129 15 discriminator 1 view .LVU478
 1668 0408 87EE8CBA 		vdiv.f32	s22, s15, s24
 1669              	.LVL103:
 130:digiBassPreamp.cpp **** 
ARM GAS  C:\Users\Andrew\AppData\Local\Temp\ccOg8wBy.s 			page 50


 1670              		.loc 6 130 9 is_stmt 1 discriminator 1 view .LVU479
 130:digiBassPreamp.cpp **** 
 1671              		.loc 6 130 27 is_stmt 0 discriminator 1 view .LVU480
 1672 040c FFF7FEFF 		bl	cosf
 1673              	.LVL104:
 1674 0410 F5EE40BA 		vcmp.f32	s23, #0
 132:digiBassPreamp.cpp ****         float b1 = -2 * A * ((A - 1) + (A + 1) * cosw0);
 1675              		.loc 6 132 43 discriminator 1 view .LVU481
 1676 0414 20EE289A 		vmul.f32	s18, s0, s17
 1677              	.LVL105:
 130:digiBassPreamp.cpp **** 
 1678              		.loc 6 130 27 discriminator 1 view .LVU482
 1679 0418 B0EE40AA 		vmov.f32	s20, s0
 1680              	.LVL106:
 132:digiBassPreamp.cpp ****         float b1 = -2 * A * ((A - 1) + (A + 1) * cosw0);
 1681              		.loc 6 132 9 is_stmt 1 discriminator 1 view .LVU483
 1682 041c F1EE10FA 		vmrs	APSR_nzcv, FPSCR
 132:digiBassPreamp.cpp ****         float b1 = -2 * A * ((A - 1) + (A + 1) * cosw0);
 1683              		.loc 6 132 33 is_stmt 0 discriminator 1 view .LVU484
 1684 0420 78EE099A 		vadd.f32	s19, s16, s18
 1685 0424 00F1E880 		bmi	.L27
 132:digiBassPreamp.cpp ****         float b1 = -2 * A * ((A - 1) + (A + 1) * cosw0);
 1686              		.loc 6 132 62 view .LVU485
 1687 0428 F1EEEB7A 		vsqrt.f32	s15, s23
 133:digiBassPreamp.cpp ****         float b2 = A * ((A + 1) + (A - 1) * cosw0 - 2 * sqrtf(A) * alpha);
 1688              		.loc 6 133 38 view .LVU486
 1689 042c B0EE687A 		vmov.f32	s14, s17
 132:digiBassPreamp.cpp ****         float b1 = -2 * A * ((A - 1) + (A + 1) * cosw0);
 1690              		.loc 6 132 51 view .LVU487
 1691 0430 B0EE69CA 		vmov.f32	s24, s19
 135:digiBassPreamp.cpp ****         float a1 = 2 * ((A - 1) - (A + 1) * cosw0);
 1692              		.loc 6 135 28 view .LVU488
 1693 0434 38EE499A 		vsub.f32	s18, s16, s18
 133:digiBassPreamp.cpp ****         float b2 = A * ((A + 1) + (A - 1) * cosw0 - 2 * sqrtf(A) * alpha);
 1694              		.loc 6 133 38 view .LVU489
 1695 0438 A0EE087A 		vfma.f32	s14, s0, s16
 136:digiBassPreamp.cpp ****         float a2 = (A + 1) - (A - 1) * cosw0 - 2 * sqrtf(A) * alpha;
 1696              		.loc 6 136 33 view .LVU490
 1697 043c E0EE488A 		vfms.f32	s17, s0, s16
 135:digiBassPreamp.cpp ****         float a1 = 2 * ((A - 1) - (A + 1) * cosw0);
 1698              		.loc 6 135 63 view .LVU491
 1699 0440 B0EE498A 		vmov.f32	s16, s18
 133:digiBassPreamp.cpp ****         float b2 = A * ((A + 1) + (A - 1) * cosw0 - 2 * sqrtf(A) * alpha);
 1700              		.loc 6 133 23 view .LVU492
 1701 0444 6BEEAAAA 		vmul.f32	s21, s23, s21
 133:digiBassPreamp.cpp ****         float b2 = A * ((A + 1) + (A - 1) * cosw0 - 2 * sqrtf(A) * alpha);
 1702              		.loc 6 133 15 view .LVU493
 1703 0448 6AEE87AA 		vmul.f32	s21, s21, s14
 136:digiBassPreamp.cpp ****         float a2 = (A + 1) - (A - 1) * cosw0 - 2 * sqrtf(A) * alpha;
 1704              		.loc 6 136 15 view .LVU494
 1705 044c 78EEA88A 		vadd.f32	s17, s17, s17
 132:digiBassPreamp.cpp ****         float b1 = -2 * A * ((A - 1) + (A + 1) * cosw0);
 1706              		.loc 6 132 55 view .LVU495
 1707 0450 77EEA77A 		vadd.f32	s15, s15, s15
 132:digiBassPreamp.cpp ****         float b1 = -2 * A * ((A - 1) + (A + 1) * cosw0);
 1708              		.loc 6 132 51 view .LVU496
 1709 0454 A7EE8BCA 		vfma.f32	s24, s15, s22
ARM GAS  C:\Users\Andrew\AppData\Local\Temp\ccOg8wBy.s 			page 51


 134:digiBassPreamp.cpp ****         float a0 = (A + 1) - (A - 1) * cosw0 + 2 * sqrtf(A) * alpha;
 1710              		.loc 6 134 51 view .LVU497
 1711 0458 E7EECB9A 		vfms.f32	s19, s15, s22
 135:digiBassPreamp.cpp ****         float a1 = 2 * ((A - 1) - (A + 1) * cosw0);
 1712              		.loc 6 135 63 view .LVU498
 1713 045c A7EE8B8A 		vfma.f32	s16, s15, s22
 132:digiBassPreamp.cpp ****         float b1 = -2 * A * ((A - 1) + (A + 1) * cosw0);
 1714              		.loc 6 132 73 view .LVU499
 1715 0460 2CEE2BCA 		vmul.f32	s24, s24, s23
 1716              	.LVL107:
 133:digiBassPreamp.cpp ****         float b2 = A * ((A + 1) + (A - 1) * cosw0 - 2 * sqrtf(A) * alpha);
 1717              		.loc 6 133 9 is_stmt 1 view .LVU500
 134:digiBassPreamp.cpp ****         float a0 = (A + 1) - (A - 1) * cosw0 + 2 * sqrtf(A) * alpha;
 1718              		.loc 6 134 9 view .LVU501
 134:digiBassPreamp.cpp ****         float a0 = (A + 1) - (A - 1) * cosw0 + 2 * sqrtf(A) * alpha;
 1719              		.loc 6 134 73 is_stmt 0 view .LVU502
 1720 0464 69EEAB9A 		vmul.f32	s19, s19, s23
 1721              	.LVL108:
 135:digiBassPreamp.cpp ****         float a1 = 2 * ((A - 1) - (A + 1) * cosw0);
 1722              		.loc 6 135 9 is_stmt 1 view .LVU503
 136:digiBassPreamp.cpp ****         float a2 = (A + 1) - (A - 1) * cosw0 - 2 * sqrtf(A) * alpha;
 1723              		.loc 6 136 9 view .LVU504
 137:digiBassPreamp.cpp **** 
 1724              		.loc 6 137 9 view .LVU505
 1725              	.L22:
 137:digiBassPreamp.cpp **** 
 1726              		.loc 6 137 63 is_stmt 0 discriminator 1 view .LVU506
 1727 0468 ABEE679A 		vfms.f32	s18, s22, s15
 1728              	.LVL109:
 139:digiBassPreamp.cpp ****     }
 1729              		.loc 6 139 9 is_stmt 1 discriminator 1 view .LVU507
 1730              	.LBB482:
 1731              	.LBI482:
  27:digiBassPreamp.cpp ****     {
 1732              		.loc 6 27 10 discriminator 1 view .LVU508
 1733              	.LBB483:
  29:digiBassPreamp.cpp ****         a1 = _a1;
 1734              		.loc 6 29 9 discriminator 1 view .LVU509
 1735              	.LBE483:
 1736              	.LBE482:
 1737              	.LBE489:
 1738              	.LBE495:
 1739              	.LBE501:
 1740              	.LBE511:
 212:digiBassPreamp.cpp **** 
 213:digiBassPreamp.cpp ****         System::Delay(1);
 1741              		.loc 6 213 22 is_stmt 0 discriminator 1 view .LVU510
 1742 046c 0120     		movs	r0, #1
 1743              	.LBB512:
 1744              	.LBB502:
 1745              	.LBB496:
 1746              	.LBB490:
 139:digiBassPreamp.cpp ****     }
 1747              		.loc 6 139 20 discriminator 1 view .LVU511
 1748 046e CCEE085A 		vdiv.f32	s11, s24, s16
 1749              	.LVL110:
 139:digiBassPreamp.cpp ****     }
ARM GAS  C:\Users\Andrew\AppData\Local\Temp\ccOg8wBy.s 			page 52


 1750              		.loc 6 139 20 discriminator 1 view .LVU512
 1751 0472 8AEE886A 		vdiv.f32	s12, s21, s16
 1752              	.LVL111:
 139:digiBassPreamp.cpp ****     }
 1753              		.loc 6 139 20 discriminator 1 view .LVU513
 1754 0476 C9EE886A 		vdiv.f32	s13, s19, s16
 1755              	.LVL112:
 139:digiBassPreamp.cpp ****     }
 1756              		.loc 6 139 20 discriminator 1 view .LVU514
 1757 047a 88EE887A 		vdiv.f32	s14, s17, s16
 1758              	.LVL113:
 1759              	.LBB486:
 1760              	.LBB484:
  29:digiBassPreamp.cpp ****         a1 = _a1;
 1761              		.loc 6 29 12 discriminator 1 view .LVU515
 1762 047e C4ED0F5A 		vstr.32	s11, [r4, #60]
  30:digiBassPreamp.cpp ****         a2 = _a2;
 1763              		.loc 6 30 9 is_stmt 1 discriminator 1 view .LVU516
 1764              	.LBE484:
 1765              	.LBE486:
 139:digiBassPreamp.cpp ****     }
 1766              		.loc 6 139 20 is_stmt 0 discriminator 1 view .LVU517
 1767 0482 C9EE087A 		vdiv.f32	s15, s18, s16
 1768              	.LVL114:
 1769              	.LBB487:
 1770              	.LBB485:
  30:digiBassPreamp.cpp ****         a2 = _a2;
 1771              		.loc 6 30 12 discriminator 1 view .LVU518
 1772 0486 84ED106A 		vstr.32	s12, [r4, #64]
  31:digiBassPreamp.cpp ****         b1 = _b1;
 1773              		.loc 6 31 9 is_stmt 1 discriminator 1 view .LVU519
  31:digiBassPreamp.cpp ****         b1 = _b1;
 1774              		.loc 6 31 12 is_stmt 0 discriminator 1 view .LVU520
 1775 048a C4ED116A 		vstr.32	s13, [r4, #68]
  32:digiBassPreamp.cpp ****         b2 = _b2;
 1776              		.loc 6 32 9 is_stmt 1 discriminator 1 view .LVU521
  32:digiBassPreamp.cpp ****         b2 = _b2;
 1777              		.loc 6 32 12 is_stmt 0 discriminator 1 view .LVU522
 1778 048e 84ED127A 		vstr.32	s14, [r4, #72]
  33:digiBassPreamp.cpp ****     }
 1779              		.loc 6 33 9 is_stmt 1 discriminator 1 view .LVU523
  33:digiBassPreamp.cpp ****     }
 1780              		.loc 6 33 12 is_stmt 0 discriminator 1 view .LVU524
 1781 0492 C4ED137A 		vstr.32	s15, [r4, #76]
 1782              	.LVL115:
  33:digiBassPreamp.cpp ****     }
 1783              		.loc 6 33 12 discriminator 1 view .LVU525
 1784              	.LBE485:
 1785              	.LBE487:
 1786              	.LBE490:
 1787              	.LBE496:
 1788              	.LBE502:
 1789              	.LBE512:
 1790              		.loc 6 213 9 is_stmt 1 discriminator 1 view .LVU526
 1791              		.loc 6 213 22 is_stmt 0 discriminator 1 view .LVU527
 1792 0496 FFF7FEFF 		bl	_ZN5daisy6System5DelayEm
 1793              	.LVL116:
ARM GAS  C:\Users\Andrew\AppData\Local\Temp\ccOg8wBy.s 			page 53


 1794              	.LBE358:
 197:digiBassPreamp.cpp ****     {
 1795              		.loc 6 197 5 is_stmt 1 discriminator 1 view .LVU528
 1796              	.L23:
 197:digiBassPreamp.cpp ****     {
 1797              		.loc 6 197 5 discriminator 1 view .LVU529
 1798              	.LBB526:
 199:digiBassPreamp.cpp ****         int floatVal = hw.adc.GetFloat(0) * 1000;
 1799              		.loc 6 199 9 discriminator 1 view .LVU530
 199:digiBassPreamp.cpp ****         int floatVal = hw.adc.GetFloat(0) * 1000;
 1800              		.loc 6 199 34 is_stmt 0 discriminator 1 view .LVU531
 1801 049a 0021     		movs	r1, #0
 1802 049c 7648     		ldr	r0, .L32+8
 1803 049e FFF7FEFF 		bl	_ZNK5daisy9AdcHandle3GetEh
 1804              	.LVL117:
 1805 04a2 0546     		mov	r5, r0
 200:digiBassPreamp.cpp ****         hw.PrintLine("ADC Value: %d", value);
 1806              		.loc 6 200 39 discriminator 1 view .LVU532
 1807 04a4 0021     		movs	r1, #0
 1808 04a6 7448     		ldr	r0, .L32+8
 1809              	.LVL118:
 200:digiBassPreamp.cpp ****         hw.PrintLine("ADC Value: %d", value);
 1810              		.loc 6 200 9 is_stmt 1 discriminator 1 view .LVU533
 200:digiBassPreamp.cpp ****         hw.PrintLine("ADC Value: %d", value);
 1811              		.loc 6 200 39 is_stmt 0 discriminator 1 view .LVU534
 1812 04a8 FFF7FEFF 		bl	_ZNK5daisy9AdcHandle8GetFloatEh
 1813              	.LVL119:
 1814              	.LBB513:
 1815              	.LBB514:
 128:../../libDaisy//src/daisy_seed.h ****     }
 1816              		.loc 1 128 23 discriminator 1 view .LVU535
 1817 04ac 7348     		ldr	r0, .L32+12
 1818              	.LBE514:
 1819              	.LBE513:
 200:digiBassPreamp.cpp ****         hw.PrintLine("ADC Value: %d", value);
 1820              		.loc 6 200 39 discriminator 1 view .LVU536
 1821 04ae B0EE408A 		vmov.f32	s16, s0
 1822              	.LVL120:
 201:digiBassPreamp.cpp ****         //
 1823              		.loc 6 201 9 is_stmt 1 discriminator 1 view .LVU537
 1824              	.LBB516:
 1825              	.LBI513:
 126:../../libDaisy//src/daisy_seed.h ****     {
 1826              		.loc 1 126 17 discriminator 1 view .LVU538
 1827              	.LBB515:
 128:../../libDaisy//src/daisy_seed.h ****     }
 1828              		.loc 1 128 23 is_stmt 0 discriminator 1 view .LVU539
 1829 04b2 2946     		mov	r1, r5
 1830 04b4 FFF7FEFF 		bl	_ZN5daisy6LoggerILNS_17LoggerDestinationE1EE9PrintLineEPKcz
 1831              	.LVL121:
 128:../../libDaisy//src/daisy_seed.h ****     }
 1832              		.loc 1 128 23 discriminator 1 view .LVU540
 1833              	.LBE515:
 1834              	.LBE516:
 203:digiBassPreamp.cpp **** 
 1835              		.loc 6 203 9 is_stmt 1 discriminator 1 view .LVU541
 1836              	.LBB517:
ARM GAS  C:\Users\Andrew\AppData\Local\Temp\ccOg8wBy.s 			page 54


 1837              	.LBI517:
 126:../../libDaisy//src/daisy_seed.h ****     {
 1838              		.loc 1 126 17 discriminator 1 view .LVU542
 1839              	.LBE517:
 200:digiBassPreamp.cpp ****         hw.PrintLine("ADC Value: %d", value);
 1840              		.loc 6 200 43 is_stmt 0 discriminator 1 view .LVU543
 1841 04b8 9FED710A 		vldr.32	s0, .L32+16
 1842              	.LBB520:
 1843              	.LBB518:
 128:../../libDaisy//src/daisy_seed.h ****     }
 1844              		.loc 1 128 23 discriminator 1 view .LVU544
 1845 04bc 7148     		ldr	r0, .L32+20
 1846              	.LBE518:
 1847              	.LBE520:
 200:digiBassPreamp.cpp ****         hw.PrintLine("ADC Value: %d", value);
 1848              		.loc 6 200 43 discriminator 1 view .LVU545
 1849 04be 28EE000A 		vmul.f32	s0, s16, s0
 1850              	.LBB521:
 1851              	.LBB519:
 128:../../libDaisy//src/daisy_seed.h ****     }
 1852              		.loc 1 128 23 discriminator 1 view .LVU546
 1853 04c2 FDEEC07A 		vcvt.s32.f32	s15, s0
 1854 04c6 17EE901A 		vmov	r1, s15	@ int
 1855 04ca FFF7FEFF 		bl	_ZN5daisy6LoggerILNS_17LoggerDestinationE1EE9PrintLineEPKcz
 1856              	.LVL122:
 128:../../libDaisy//src/daisy_seed.h ****     }
 1857              		.loc 1 128 23 discriminator 1 view .LVU547
 1858              	.LBE519:
 1859              	.LBE521:
 205:digiBassPreamp.cpp ****         float mid    = hw.adc.GetFloat(1);
 1860              		.loc 6 205 9 is_stmt 1 discriminator 1 view .LVU548
 205:digiBassPreamp.cpp ****         float mid    = hw.adc.GetFloat(1);
 1861              		.loc 6 205 39 is_stmt 0 discriminator 1 view .LVU549
 1862 04ce 0021     		movs	r1, #0
 1863 04d0 6948     		ldr	r0, .L32+8
 1864 04d2 FFF7FEFF 		bl	_ZNK5daisy9AdcHandle8GetFloatEh
 1865              	.LVL123:
 206:digiBassPreamp.cpp ****         float treble = hw.adc.GetFloat(2);
 1866              		.loc 6 206 39 discriminator 1 view .LVU550
 1867 04d6 0121     		movs	r1, #1
 1868 04d8 6748     		ldr	r0, .L32+8
 205:digiBassPreamp.cpp ****         float mid    = hw.adc.GetFloat(1);
 1869              		.loc 6 205 39 discriminator 1 view .LVU551
 1870 04da B0EE408A 		vmov.f32	s16, s0
 1871              	.LVL124:
 206:digiBassPreamp.cpp ****         float treble = hw.adc.GetFloat(2);
 1872              		.loc 6 206 9 is_stmt 1 discriminator 1 view .LVU552
 206:digiBassPreamp.cpp ****         float treble = hw.adc.GetFloat(2);
 1873              		.loc 6 206 39 is_stmt 0 discriminator 1 view .LVU553
 1874 04de FFF7FEFF 		bl	_ZNK5daisy9AdcHandle8GetFloatEh
 1875              	.LVL125:
 207:digiBassPreamp.cpp **** 
 1876              		.loc 6 207 39 discriminator 1 view .LVU554
 1877 04e2 0221     		movs	r1, #2
 1878 04e4 6448     		ldr	r0, .L32+8
 206:digiBassPreamp.cpp ****         float treble = hw.adc.GetFloat(2);
 1879              		.loc 6 206 39 discriminator 1 view .LVU555
ARM GAS  C:\Users\Andrew\AppData\Local\Temp\ccOg8wBy.s 			page 55


 1880 04e6 B0EE409A 		vmov.f32	s18, s0
 1881              	.LVL126:
 207:digiBassPreamp.cpp **** 
 1882              		.loc 6 207 9 is_stmt 1 discriminator 1 view .LVU556
 207:digiBassPreamp.cpp **** 
 1883              		.loc 6 207 39 is_stmt 0 discriminator 1 view .LVU557
 1884 04ea FFF7FEFF 		bl	_ZNK5daisy9AdcHandle8GetFloatEh
 1885              	.LVL127:
 1886              	.LBB522:
 1887              	.LBB411:
 1888              	.LBB393:
 1889              	.LBB394:
 102:digiBassPreamp.cpp ****     }
 1890              		.loc 6 102 22 discriminator 1 view .LVU558
 1891 04ee B6EE007A 		vmov.f32	s14, #5.0e-1
 102:digiBassPreamp.cpp ****     }
 1892              		.loc 6 102 38 discriminator 1 view .LVU559
 1893 04f2 F2EE0E6A 		vmov.f32	s13, #1.5e+1
 1894              	.LBE394:
 1895              	.LBE393:
 1896              	.LBB398:
 1897              	.LBB383:
 110:digiBassPreamp.cpp ****         float w0    = 2.0f * M_PI * freq / sr_;
 1898              		.loc 6 110 27 discriminator 1 view .LVU560
 1899 04f6 DFED640A 		vldr.32	s1, .L32+24
 1900              	.LBE383:
 1901              	.LBE398:
  79:digiBassPreamp.cpp ****     }
 1902              		.loc 6 79 20 discriminator 1 view .LVU561
 1903 04fa D4ED169A 		vldr.32	s19, [r4, #88]
 1904              	.LBE411:
 1905              	.LBE522:
 207:digiBassPreamp.cpp **** 
 1906              		.loc 6 207 39 discriminator 1 view .LVU562
 1907 04fe B0EE40AA 		vmov.f32	s20, s0
 1908              	.LBB523:
 1909              	.LBB412:
 1910              	.LBB399:
 1911              	.LBB395:
 102:digiBassPreamp.cpp ****     }
 1912              		.loc 6 102 22 discriminator 1 view .LVU563
 1913 0502 77EE487A 		vsub.f32	s15, s14, s16
 1914              	.LBE395:
 1915              	.LBE399:
  79:digiBassPreamp.cpp ****     }
 1916              		.loc 6 79 20 discriminator 1 view .LVU564
 1917 0506 D4ED19AA 		vldr.32	s21, [r4, #100]
 1918              	.LBB400:
 1919              	.LBB384:
 110:digiBassPreamp.cpp ****         float w0    = 2.0f * M_PI * freq / sr_;
 1920              		.loc 6 110 27 discriminator 1 view .LVU565
 1921 050a B2EE040A 		vmov.f32	s0, #1.0e+1
 1922              	.LVL128:
 110:digiBassPreamp.cpp ****         float w0    = 2.0f * M_PI * freq / sr_;
 1923              		.loc 6 110 27 discriminator 1 view .LVU566
 1924              	.LBE384:
 1925              	.LBE400:
ARM GAS  C:\Users\Andrew\AppData\Local\Temp\ccOg8wBy.s 			page 56


 1926              	.LBE412:
 1927              	.LBE523:
 209:digiBassPreamp.cpp ****         eq.SetMid(mid);
 1928              		.loc 6 209 9 is_stmt 1 discriminator 1 view .LVU567
 1929              	.LBB524:
 1930              	.LBI359:
  76:digiBassPreamp.cpp ****     {
 1931              		.loc 6 76 10 discriminator 1 view .LVU568
 1932              	.LBB413:
  78:digiBassPreamp.cpp ****         SetLowShelf(bass, bass_freq_, bass_q_, db);
 1933              		.loc 6 78 9 discriminator 1 view .LVU569
 1934              	.LBB401:
 1935              	.LBI393:
 100:digiBassPreamp.cpp ****     {
 1936              		.loc 6 100 11 discriminator 1 view .LVU570
 1937              	.LBB396:
 102:digiBassPreamp.cpp ****     }
 1938              		.loc 6 102 9 discriminator 1 view .LVU571
 102:digiBassPreamp.cpp ****     }
 1939              		.loc 6 102 9 is_stmt 0 discriminator 1 view .LVU572
 1940              	.LBE396:
 1941              	.LBE401:
  79:digiBassPreamp.cpp ****     }
 1942              		.loc 6 79 9 is_stmt 1 discriminator 1 view .LVU573
 1943              	.LBB402:
 1944              	.LBI361:
 108:digiBassPreamp.cpp ****     {
 1945              		.loc 6 108 10 discriminator 1 view .LVU574
 1946              	.LBB385:
 110:digiBassPreamp.cpp ****         float w0    = 2.0f * M_PI * freq / sr_;
 1947              		.loc 6 110 9 discriminator 1 view .LVU575
 1948              	.LBE385:
 1949              	.LBE402:
 1950              	.LBB403:
 1951              	.LBB397:
 102:digiBassPreamp.cpp ****     }
 1952              		.loc 6 102 29 is_stmt 0 discriminator 1 view .LVU576
 1953 050e 77EEA77A 		vadd.f32	s15, s15, s15
 102:digiBassPreamp.cpp ****     }
 1954              		.loc 6 102 38 discriminator 1 view .LVU577
 1955 0512 67EEA67A 		vmul.f32	s15, s15, s13
 1956              	.LBE397:
 1957              	.LBE403:
 1958              	.LBB404:
 1959              	.LBB386:
 110:digiBassPreamp.cpp ****         float w0    = 2.0f * M_PI * freq / sr_;
 1960              		.loc 6 110 27 discriminator 1 view .LVU578
 1961 0516 C7EEA00A 		vdiv.f32	s1, s15, s1
 1962 051a FFF7FEFF 		bl	powf
 1963              	.LVL129:
 111:digiBassPreamp.cpp ****         float alpha = sinf(w0) / (2.0f * Q);
 1964              		.loc 6 111 44 discriminator 1 view .LVU579
 1965 051e 94ED006A 		vldr.32	s12, [r4]
 111:digiBassPreamp.cpp ****         float alpha = sinf(w0) / (2.0f * Q);
 1966              		.loc 6 111 37 discriminator 1 view .LVU580
 1967 0522 B7EEE97A 		vcvt.f64.f32	d7, s19
 111:digiBassPreamp.cpp ****         float alpha = sinf(w0) / (2.0f * Q);
ARM GAS  C:\Users\Andrew\AppData\Local\Temp\ccOg8wBy.s 			page 57


 1968              		.loc 6 111 44 discriminator 1 view .LVU581
 1969 0526 B7EEC66A 		vcvt.f64.f32	d6, s12
 110:digiBassPreamp.cpp ****         float w0    = 2.0f * M_PI * freq / sr_;
 1970              		.loc 6 110 27 discriminator 1 view .LVU582
 1971 052a B0EE408A 		vmov.f32	s16, s0
 1972              	.LVL130:
 111:digiBassPreamp.cpp ****         float alpha = sinf(w0) / (2.0f * Q);
 1973              		.loc 6 111 9 is_stmt 1 discriminator 1 view .LVU583
 112:digiBassPreamp.cpp ****         float cosw0 = cosf(w0);
 1974              		.loc 6 112 40 is_stmt 0 discriminator 1 view .LVU584
 1975 052e 7AEEAAAA 		vadd.f32	s21, s21, s21
 1976              	.LVL131:
 111:digiBassPreamp.cpp ****         float alpha = sinf(w0) / (2.0f * Q);
 1977              		.loc 6 111 35 discriminator 1 view .LVU585
 1978 0532 9FED4F5B 		vldr.64	d5, .L32
 1979 0536 27EE057B 		vmul.f64	d7, d7, d5
 111:digiBassPreamp.cpp ****         float alpha = sinf(w0) / (2.0f * Q);
 1980              		.loc 6 111 42 discriminator 1 view .LVU586
 1981 053a 87EE060B 		vdiv.f64	d0, d7, d6
 1982              	.LVL132:
 111:digiBassPreamp.cpp ****         float alpha = sinf(w0) / (2.0f * Q);
 1983              		.loc 6 111 15 discriminator 1 view .LVU587
 1984 053e F7EEC08B 		vcvt.f32.f64	s17, d0
 1985              	.LVL133:
 112:digiBassPreamp.cpp ****         float cosw0 = cosf(w0);
 1986              		.loc 6 112 9 is_stmt 1 discriminator 1 view .LVU588
 112:digiBassPreamp.cpp ****         float cosw0 = cosf(w0);
 1987              		.loc 6 112 27 is_stmt 0 discriminator 1 view .LVU589
 1988 0542 B0EE680A 		vmov.f32	s0, s17
 1989 0546 FFF7FEFF 		bl	sinf
 1990              	.LVL134:
 1991 054a F0EE407A 		vmov.f32	s15, s0
 113:digiBassPreamp.cpp **** 
 1992              		.loc 6 113 27 discriminator 1 view .LVU590
 1993 054e B0EE680A 		vmov.f32	s0, s17
 112:digiBassPreamp.cpp ****         float cosw0 = cosf(w0);
 1994              		.loc 6 112 15 discriminator 1 view .LVU591
 1995 0552 87EEAACA 		vdiv.f32	s24, s15, s21
 1996              	.LVL135:
 113:digiBassPreamp.cpp **** 
 1997              		.loc 6 113 9 is_stmt 1 discriminator 1 view .LVU592
 113:digiBassPreamp.cpp **** 
 1998              		.loc 6 113 27 is_stmt 0 discriminator 1 view .LVU593
 1999 0556 FFF7FEFF 		bl	cosf
 2000              	.LVL136:
 115:digiBassPreamp.cpp ****         float b1 = 2 * A * ((A - 1) - (A + 1) * cosw0);
 2001              		.loc 6 115 28 discriminator 1 view .LVU594
 2002 055a F7EE00AA 		vmov.f32	s21, #1.0e+0
 2003 055e B5EE408A 		vcmp.f32	s16, #0
 113:digiBassPreamp.cpp **** 
 2004              		.loc 6 113 27 discriminator 1 view .LVU595
 2005 0562 F0EE40BA 		vmov.f32	s23, s0
 2006              	.LVL137:
 115:digiBassPreamp.cpp ****         float b1 = 2 * A * ((A - 1) - (A + 1) * cosw0);
 2007              		.loc 6 115 9 is_stmt 1 discriminator 1 view .LVU596
 115:digiBassPreamp.cpp ****         float b1 = 2 * A * ((A - 1) - (A + 1) * cosw0);
 2008              		.loc 6 115 38 is_stmt 0 discriminator 1 view .LVU597
ARM GAS  C:\Users\Andrew\AppData\Local\Temp\ccOg8wBy.s 			page 58


 2009 0566 78EE6A8A 		vsub.f32	s17, s16, s21
 2010              	.LVL138:
 115:digiBassPreamp.cpp ****         float b1 = 2 * A * ((A - 1) - (A + 1) * cosw0);
 2011              		.loc 6 115 38 discriminator 1 view .LVU598
 2012 056a F1EE10FA 		vmrs	APSR_nzcv, FPSCR
 115:digiBassPreamp.cpp ****         float b1 = 2 * A * ((A - 1) - (A + 1) * cosw0);
 2013              		.loc 6 115 28 discriminator 1 view .LVU599
 2014 056e 78EE2AAA 		vadd.f32	s21, s16, s21
 115:digiBassPreamp.cpp ****         float b1 = 2 * A * ((A - 1) - (A + 1) * cosw0);
 2015              		.loc 6 115 43 discriminator 1 view .LVU600
 2016 0572 60EE289A 		vmul.f32	s19, s0, s17
 2017              	.LVL139:
 115:digiBassPreamp.cpp ****         float b1 = 2 * A * ((A - 1) - (A + 1) * cosw0);
 2018              		.loc 6 115 33 discriminator 1 view .LVU601
 2019 0576 3AEEE9BA 		vsub.f32	s22, s21, s19
 2020 057a 7FF581AE 		bpl	.L29
 115:digiBassPreamp.cpp ****         float b1 = 2 * A * ((A - 1) - (A + 1) * cosw0);
 2021              		.loc 6 115 62 discriminator 1 view .LVU602
 2022 057e B0EE480A 		vmov.f32	s0, s16
 2023              	.LVL140:
 115:digiBassPreamp.cpp ****         float b1 = 2 * A * ((A - 1) - (A + 1) * cosw0);
 2024              		.loc 6 115 62 discriminator 1 view .LVU603
 2025 0582 FFF7FEFF 		bl	sqrtf
 2026              	.LVL141:
 116:digiBassPreamp.cpp ****         float b2 = A * ((A + 1) - (A - 1) * cosw0 - 2 * sqrtf(A) * alpha);
 2027              		.loc 6 116 37 discriminator 1 view .LVU604
 2028 0586 B0EE687A 		vmov.f32	s14, s17
 115:digiBassPreamp.cpp ****         float b1 = 2 * A * ((A - 1) - (A + 1) * cosw0);
 2029              		.loc 6 115 55 discriminator 1 view .LVU605
 2030 058a 70EE007A 		vadd.f32	s15, s0, s0
 115:digiBassPreamp.cpp ****         float b1 = 2 * A * ((A - 1) - (A + 1) * cosw0);
 2031              		.loc 6 115 51 discriminator 1 view .LVU606
 2032 058e B0EE4BDA 		vmov.f32	s26, s22
 116:digiBassPreamp.cpp ****         float b2 = A * ((A + 1) - (A - 1) * cosw0 - 2 * sqrtf(A) * alpha);
 2033              		.loc 6 116 37 discriminator 1 view .LVU607
 2034 0592 ABEEEA7A 		vfms.f32	s14, s23, s21
 116:digiBassPreamp.cpp ****         float b2 = A * ((A + 1) - (A - 1) * cosw0 - 2 * sqrtf(A) * alpha);
 2035              		.loc 6 116 22 discriminator 1 view .LVU608
 2036 0596 78EE08CA 		vadd.f32	s25, s16, s16
 117:digiBassPreamp.cpp ****         float a0 = (A + 1) + (A - 1) * cosw0 + 2 * sqrtf(A) * alpha;
 2037              		.loc 6 117 62 discriminator 1 view .LVU609
 2038 059a B0EE480A 		vmov.f32	s0, s16
 115:digiBassPreamp.cpp ****         float b1 = 2 * A * ((A - 1) - (A + 1) * cosw0);
 2039              		.loc 6 115 51 discriminator 1 view .LVU610
 2040 059e ACEE27DA 		vfma.f32	s26, s24, s15
 117:digiBassPreamp.cpp ****         float a0 = (A + 1) + (A - 1) * cosw0 + 2 * sqrtf(A) * alpha;
 2041              		.loc 6 117 51 discriminator 1 view .LVU611
 2042 05a2 F1EE4CDA 		vneg.f32	s27, s24
 116:digiBassPreamp.cpp ****         float b2 = A * ((A + 1) - (A - 1) * cosw0 - 2 * sqrtf(A) * alpha);
 2043              		.loc 6 116 15 discriminator 1 view .LVU612
 2044 05a6 6CEE87CA 		vmul.f32	s25, s25, s14
 117:digiBassPreamp.cpp ****         float a0 = (A + 1) + (A - 1) * cosw0 + 2 * sqrtf(A) * alpha;
 2045              		.loc 6 117 62 discriminator 1 view .LVU613
 2046 05aa FFF7FEFF 		bl	sqrtf
 2047              	.LVL142:
 2048 05ae F0EE407A 		vmov.f32	s15, s0
 118:digiBassPreamp.cpp ****         float a1 = -2 * ((A - 1) + (A + 1) * cosw0);
ARM GAS  C:\Users\Andrew\AppData\Local\Temp\ccOg8wBy.s 			page 59


 2049              		.loc 6 118 57 discriminator 1 view .LVU614
 2050 05b2 B0EE480A 		vmov.f32	s0, s16
 118:digiBassPreamp.cpp ****         float a1 = -2 * ((A - 1) + (A + 1) * cosw0);
 2051              		.loc 6 118 28 discriminator 1 view .LVU615
 2052 05b6 7AEEA99A 		vadd.f32	s19, s21, s19
 117:digiBassPreamp.cpp ****         float a0 = (A + 1) + (A - 1) * cosw0 + 2 * sqrtf(A) * alpha;
 2053              		.loc 6 117 55 discriminator 1 view .LVU616
 2054 05ba 77EEA77A 		vadd.f32	s15, s15, s15
 115:digiBassPreamp.cpp ****         float b1 = 2 * A * ((A - 1) - (A + 1) * cosw0);
 2055              		.loc 6 115 73 discriminator 1 view .LVU617
 2056 05be 28EE0DDA 		vmul.f32	s26, s16, s26
 2057              	.LVL143:
 116:digiBassPreamp.cpp ****         float b2 = A * ((A + 1) - (A - 1) * cosw0 - 2 * sqrtf(A) * alpha);
 2058              		.loc 6 116 9 is_stmt 1 discriminator 1 view .LVU618
 117:digiBassPreamp.cpp ****         float a0 = (A + 1) + (A - 1) * cosw0 + 2 * sqrtf(A) * alpha;
 2059              		.loc 6 117 9 discriminator 1 view .LVU619
 117:digiBassPreamp.cpp ****         float a0 = (A + 1) + (A - 1) * cosw0 + 2 * sqrtf(A) * alpha;
 2060              		.loc 6 117 51 is_stmt 0 discriminator 1 view .LVU620
 2061 05c2 ACEE67BA 		vfms.f32	s22, s24, s15
 118:digiBassPreamp.cpp ****         float a1 = -2 * ((A - 1) + (A + 1) * cosw0);
 2062              		.loc 6 118 57 discriminator 1 view .LVU621
 2063 05c6 FFF7FEFF 		bl	sqrtf
 2064              	.LVL144:
 119:digiBassPreamp.cpp ****         float a2 = (A + 1) + (A - 1) * cosw0 - 2 * sqrtf(A) * alpha;
 2065              		.loc 6 119 34 discriminator 1 view .LVU622
 2066 05ca EBEEAA8A 		vfma.f32	s17, s23, s21
 118:digiBassPreamp.cpp ****         float a1 = -2 * ((A - 1) + (A + 1) * cosw0);
 2067              		.loc 6 118 57 discriminator 1 view .LVU623
 2068 05ce F0EE407A 		vmov.f32	s15, s0
 119:digiBassPreamp.cpp ****         float a2 = (A + 1) + (A - 1) * cosw0 - 2 * sqrtf(A) * alpha;
 2069              		.loc 6 119 15 discriminator 1 view .LVU624
 2070 05d2 B8EE007A 		vmov.f32	s14, #-2.0e+0
 118:digiBassPreamp.cpp ****         float a1 = -2 * ((A - 1) + (A + 1) * cosw0);
 2071              		.loc 6 118 63 discriminator 1 view .LVU625
 2072 05d6 F0EE69AA 		vmov.f32	s21, s19
 118:digiBassPreamp.cpp ****         float a1 = -2 * ((A - 1) + (A + 1) * cosw0);
 2073              		.loc 6 118 50 discriminator 1 view .LVU626
 2074 05da 77EEA77A 		vadd.f32	s15, s15, s15
 120:digiBassPreamp.cpp **** 
 2075              		.loc 6 120 57 discriminator 1 view .LVU627
 2076 05de B0EE480A 		vmov.f32	s0, s16
 119:digiBassPreamp.cpp ****         float a2 = (A + 1) + (A - 1) * cosw0 - 2 * sqrtf(A) * alpha;
 2077              		.loc 6 119 15 discriminator 1 view .LVU628
 2078 05e2 68EE878A 		vmul.f32	s17, s17, s14
 118:digiBassPreamp.cpp ****         float a1 = -2 * ((A - 1) + (A + 1) * cosw0);
 2079              		.loc 6 118 63 discriminator 1 view .LVU629
 2080 05e6 ECEE27AA 		vfma.f32	s21, s24, s15
 120:digiBassPreamp.cpp **** 
 2081              		.loc 6 120 57 discriminator 1 view .LVU630
 2082 05ea FFF7FEFF 		bl	sqrtf
 2083              	.LVL145:
 117:digiBassPreamp.cpp ****         float a0 = (A + 1) + (A - 1) * cosw0 + 2 * sqrtf(A) * alpha;
 2084              		.loc 6 117 73 discriminator 1 view .LVU631
 2085 05ee 28EE0BBA 		vmul.f32	s22, s16, s22
 2086              	.LVL146:
 118:digiBassPreamp.cpp ****         float a1 = -2 * ((A - 1) + (A + 1) * cosw0);
 2087              		.loc 6 118 9 is_stmt 1 discriminator 1 view .LVU632
ARM GAS  C:\Users\Andrew\AppData\Local\Temp\ccOg8wBy.s 			page 60


 119:digiBassPreamp.cpp ****         float a2 = (A + 1) + (A - 1) * cosw0 - 2 * sqrtf(A) * alpha;
 2088              		.loc 6 119 9 discriminator 1 view .LVU633
 120:digiBassPreamp.cpp **** 
 2089              		.loc 6 120 9 discriminator 1 view .LVU634
 120:digiBassPreamp.cpp **** 
 2090              		.loc 6 120 9 is_stmt 0 discriminator 1 view .LVU635
 2091 05f2 30EE000A 		vadd.f32	s0, s0, s0
 2092 05f6 67E6     		b	.L19
 2093              	.LVL147:
 2094              	.L27:
 120:digiBassPreamp.cpp **** 
 2095              		.loc 6 120 9 discriminator 1 view .LVU636
 2096              	.LBE386:
 2097              	.LBE404:
 2098              	.LBE413:
 2099              	.LBE524:
 2100              	.LBB525:
 2101              	.LBB503:
 2102              	.LBB497:
 2103              	.LBB491:
 132:digiBassPreamp.cpp ****         float b1 = -2 * A * ((A - 1) + (A + 1) * cosw0);
 2104              		.loc 6 132 62 discriminator 1 view .LVU637
 2105 05f8 B0EE6B0A 		vmov.f32	s0, s23
 2106              	.LVL148:
 132:digiBassPreamp.cpp ****         float b1 = -2 * A * ((A - 1) + (A + 1) * cosw0);
 2107              		.loc 6 132 62 discriminator 1 view .LVU638
 2108 05fc FFF7FEFF 		bl	sqrtf
 2109              	.LVL149:
 133:digiBassPreamp.cpp ****         float b2 = A * ((A + 1) + (A - 1) * cosw0 - 2 * sqrtf(A) * alpha);
 2110              		.loc 6 133 38 discriminator 1 view .LVU639
 2111 0600 B0EE687A 		vmov.f32	s14, s17
 132:digiBassPreamp.cpp ****         float b1 = -2 * A * ((A - 1) + (A + 1) * cosw0);
 2112              		.loc 6 132 55 discriminator 1 view .LVU640
 2113 0604 70EE007A 		vadd.f32	s15, s0, s0
 132:digiBassPreamp.cpp ****         float b1 = -2 * A * ((A - 1) + (A + 1) * cosw0);
 2114              		.loc 6 132 51 discriminator 1 view .LVU641
 2115 0608 B0EE69CA 		vmov.f32	s24, s19
 133:digiBassPreamp.cpp ****         float b2 = A * ((A + 1) + (A - 1) * cosw0 - 2 * sqrtf(A) * alpha);
 2116              		.loc 6 133 38 discriminator 1 view .LVU642
 2117 060c AAEE087A 		vfma.f32	s14, s20, s16
 133:digiBassPreamp.cpp ****         float b2 = A * ((A + 1) + (A - 1) * cosw0 - 2 * sqrtf(A) * alpha);
 2118              		.loc 6 133 23 discriminator 1 view .LVU643
 2119 0610 6BEEAAAA 		vmul.f32	s21, s23, s21
 134:digiBassPreamp.cpp ****         float a0 = (A + 1) - (A - 1) * cosw0 + 2 * sqrtf(A) * alpha;
 2120              		.loc 6 134 62 discriminator 1 view .LVU644
 2121 0614 B0EE6B0A 		vmov.f32	s0, s23
 132:digiBassPreamp.cpp ****         float b1 = -2 * A * ((A - 1) + (A + 1) * cosw0);
 2122              		.loc 6 132 51 discriminator 1 view .LVU645
 2123 0618 A7EE8BCA 		vfma.f32	s24, s15, s22
 133:digiBassPreamp.cpp ****         float b2 = A * ((A + 1) + (A - 1) * cosw0 - 2 * sqrtf(A) * alpha);
 2124              		.loc 6 133 15 discriminator 1 view .LVU646
 2125 061c 6AEE87AA 		vmul.f32	s21, s21, s14
 134:digiBassPreamp.cpp ****         float a0 = (A + 1) - (A - 1) * cosw0 + 2 * sqrtf(A) * alpha;
 2126              		.loc 6 134 62 discriminator 1 view .LVU647
 2127 0620 FFF7FEFF 		bl	sqrtf
 2128              	.LVL150:
 2129 0624 F0EE407A 		vmov.f32	s15, s0
ARM GAS  C:\Users\Andrew\AppData\Local\Temp\ccOg8wBy.s 			page 61


 135:digiBassPreamp.cpp ****         float a1 = 2 * ((A - 1) - (A + 1) * cosw0);
 2130              		.loc 6 135 57 discriminator 1 view .LVU648
 2131 0628 B0EE6B0A 		vmov.f32	s0, s23
 135:digiBassPreamp.cpp ****         float a1 = 2 * ((A - 1) - (A + 1) * cosw0);
 2132              		.loc 6 135 28 discriminator 1 view .LVU649
 2133 062c 38EE499A 		vsub.f32	s18, s16, s18
 134:digiBassPreamp.cpp ****         float a0 = (A + 1) - (A - 1) * cosw0 + 2 * sqrtf(A) * alpha;
 2134              		.loc 6 134 55 discriminator 1 view .LVU650
 2135 0630 77EEA77A 		vadd.f32	s15, s15, s15
 132:digiBassPreamp.cpp ****         float b1 = -2 * A * ((A - 1) + (A + 1) * cosw0);
 2136              		.loc 6 132 73 discriminator 1 view .LVU651
 2137 0634 2BEE8CCA 		vmul.f32	s24, s23, s24
 2138              	.LVL151:
 133:digiBassPreamp.cpp ****         float b2 = A * ((A + 1) + (A - 1) * cosw0 - 2 * sqrtf(A) * alpha);
 2139              		.loc 6 133 9 is_stmt 1 discriminator 1 view .LVU652
 134:digiBassPreamp.cpp ****         float a0 = (A + 1) - (A - 1) * cosw0 + 2 * sqrtf(A) * alpha;
 2140              		.loc 6 134 9 discriminator 1 view .LVU653
 134:digiBassPreamp.cpp ****         float a0 = (A + 1) - (A - 1) * cosw0 + 2 * sqrtf(A) * alpha;
 2141              		.loc 6 134 51 is_stmt 0 discriminator 1 view .LVU654
 2142 0638 E7EECB9A 		vfms.f32	s19, s15, s22
 135:digiBassPreamp.cpp ****         float a1 = 2 * ((A - 1) - (A + 1) * cosw0);
 2143              		.loc 6 135 57 discriminator 1 view .LVU655
 2144 063c FFF7FEFF 		bl	sqrtf
 2145              	.LVL152:
 136:digiBassPreamp.cpp ****         float a2 = (A + 1) - (A - 1) * cosw0 - 2 * sqrtf(A) * alpha;
 2146              		.loc 6 136 33 discriminator 1 view .LVU656
 2147 0640 EAEE488A 		vfms.f32	s17, s20, s16
 135:digiBassPreamp.cpp ****         float a1 = 2 * ((A - 1) - (A + 1) * cosw0);
 2148              		.loc 6 135 57 discriminator 1 view .LVU657
 2149 0644 F0EE407A 		vmov.f32	s15, s0
 135:digiBassPreamp.cpp ****         float a1 = 2 * ((A - 1) - (A + 1) * cosw0);
 2150              		.loc 6 135 63 discriminator 1 view .LVU658
 2151 0648 B0EE498A 		vmov.f32	s16, s18
 137:digiBassPreamp.cpp **** 
 2152              		.loc 6 137 57 discriminator 1 view .LVU659
 2153 064c B0EE6B0A 		vmov.f32	s0, s23
 135:digiBassPreamp.cpp ****         float a1 = 2 * ((A - 1) - (A + 1) * cosw0);
 2154              		.loc 6 135 50 discriminator 1 view .LVU660
 2155 0650 77EEA77A 		vadd.f32	s15, s15, s15
 134:digiBassPreamp.cpp ****         float a0 = (A + 1) - (A - 1) * cosw0 + 2 * sqrtf(A) * alpha;
 2156              		.loc 6 134 73 discriminator 1 view .LVU661
 2157 0654 69EEAB9A 		vmul.f32	s19, s19, s23
 2158              	.LVL153:
 135:digiBassPreamp.cpp ****         float a1 = 2 * ((A - 1) - (A + 1) * cosw0);
 2159              		.loc 6 135 9 is_stmt 1 discriminator 1 view .LVU662
 136:digiBassPreamp.cpp ****         float a2 = (A + 1) - (A - 1) * cosw0 - 2 * sqrtf(A) * alpha;
 2160              		.loc 6 136 15 is_stmt 0 discriminator 1 view .LVU663
 2161 0658 78EEA88A 		vadd.f32	s17, s17, s17
 135:digiBassPreamp.cpp ****         float a1 = 2 * ((A - 1) - (A + 1) * cosw0);
 2162              		.loc 6 135 63 discriminator 1 view .LVU664
 2163 065c A7EE8B8A 		vfma.f32	s16, s15, s22
 2164              	.LVL154:
 136:digiBassPreamp.cpp ****         float a2 = (A + 1) - (A - 1) * cosw0 - 2 * sqrtf(A) * alpha;
 2165              		.loc 6 136 9 is_stmt 1 discriminator 1 view .LVU665
 137:digiBassPreamp.cpp **** 
 2166              		.loc 6 137 9 discriminator 1 view .LVU666
 137:digiBassPreamp.cpp **** 
ARM GAS  C:\Users\Andrew\AppData\Local\Temp\ccOg8wBy.s 			page 62


 2167              		.loc 6 137 57 is_stmt 0 discriminator 1 view .LVU667
 2168 0660 FFF7FEFF 		bl	sqrtf
 2169              	.LVL155:
 2170 0664 70EE007A 		vadd.f32	s15, s0, s0
 2171 0668 FEE6     		b	.L22
 2172              	.L33:
 2173 066a 00BFAFF3 		.align	3
 2173      0080
 2174              	.L32:
 2175 0670 182D4454 		.word	1413754136
 2176 0674 FB211940 		.word	1075388923
 2177 0678 18000000 		.word	.LANCHOR1+24
 2178 067c 00000000 		.word	.LC1
 2179 0680 00007A44 		.word	1148846080
 2180 0684 10000000 		.word	.LC2
 2181 0688 00002042 		.word	1109393408
 2182              	.LBE491:
 2183              	.LBE497:
 2184              	.LBE503:
 2185              	.LBE525:
 2186              	.LBE526:
 2187              		.cfi_endproc
 2188              	.LFE4700:
 2190              		.section	.text.startup._GLOBAL__sub_I_hw,"ax",%progbits
 2191              		.align	1
 2192              		.p2align 2,,3
 2193              		.syntax unified
 2194              		.thumb
 2195              		.thumb_func
 2196              		.fpu fpv5-d16
 2198              	_GLOBAL__sub_I_hw:
 2199              	.LFB5264:
 214:digiBassPreamp.cpp ****     }
 215:digiBassPreamp.cpp **** }
 2200              		.loc 6 215 1 is_stmt 1 view -0
 2201              		.cfi_startproc
 2202              		@ args = 0, pretend = 0, frame = 0
 2203              		@ frame_needed = 0, uses_anonymous_args = 0
 2204              	.LBB556:
 2205              	.LBI556:
 2206              		.loc 6 215 1 view .LVU669
 2207              	.LVL156:
 2208              	.LBB557:
 2209              	.LBB558:
 2210              	.LBI558:
  21:../../libDaisy//src/daisy_seed.h ****     ~DaisySeed() {}
 2211              		.loc 1 21 5 view .LVU670
 2212              	.LBB559:
 2213              	.LBB560:
 2214              	.LBI560:
 2215              		.file 7 "../../libDaisy//src/per/qspi.h"
   1:../../libDaisy//src/per/qspi.h **** #ifndef DSY_QSPI
   2:../../libDaisy//src/per/qspi.h **** #define DSY_QSPI /**< Macro */
   3:../../libDaisy//src/per/qspi.h **** 
   4:../../libDaisy//src/per/qspi.h **** #ifndef UNIT_TEST // for unit tests, a dummy implementation
   5:../../libDaisy//src/per/qspi.h **** 
   6:../../libDaisy//src/per/qspi.h **** #include <cstdint>
ARM GAS  C:\Users\Andrew\AppData\Local\Temp\ccOg8wBy.s 			page 63


   7:../../libDaisy//src/per/qspi.h **** #include "daisy_core.h" // Added for dsy_gpio_pin typedef
   8:../../libDaisy//src/per/qspi.h **** 
   9:../../libDaisy//src/per/qspi.h **** #define DSY_QSPI_TEXT       \
  10:../../libDaisy//src/per/qspi.h ****     __attribute__((section( \
  11:../../libDaisy//src/per/qspi.h ****         ".qspiflash_text"))) /**< used for reading memory in memory_mapped mode. */
  12:../../libDaisy//src/per/qspi.h **** #define DSY_QSPI_DATA       \
  13:../../libDaisy//src/per/qspi.h ****     __attribute__((section( \
  14:../../libDaisy//src/per/qspi.h ****         ".qspiflash_data"))) /**< used for reading memory in memory_mapped mode. */
  15:../../libDaisy//src/per/qspi.h **** #define DSY_QSPI_BSS        \
  16:../../libDaisy//src/per/qspi.h ****     __attribute__((section( \
  17:../../libDaisy//src/per/qspi.h ****         ".qspiflash_bss"))) /**< used for reading memory in memory_mapped mode. */
  18:../../libDaisy//src/per/qspi.h **** 
  19:../../libDaisy//src/per/qspi.h **** namespace daisy
  20:../../libDaisy//src/per/qspi.h **** {
  21:../../libDaisy//src/per/qspi.h **** /** @addtogroup serial
  22:../../libDaisy//src/per/qspi.h **** @{
  23:../../libDaisy//src/per/qspi.h **** */
  24:../../libDaisy//src/per/qspi.h **** 
  25:../../libDaisy//src/per/qspi.h **** /** 
  26:../../libDaisy//src/per/qspi.h ****  Driver for QSPI peripheral to interface with external flash memory. \n 
  27:../../libDaisy//src/per/qspi.h ****     Currently supported QSPI Devices: \n 
  28:../../libDaisy//src/per/qspi.h ****     * IS25LP080D
  29:../../libDaisy//src/per/qspi.h **** */
  30:../../libDaisy//src/per/qspi.h **** class QSPIHandle
  31:../../libDaisy//src/per/qspi.h **** {
  32:../../libDaisy//src/per/qspi.h ****   public:
  33:../../libDaisy//src/per/qspi.h ****     enum Result
  34:../../libDaisy//src/per/qspi.h ****     {
  35:../../libDaisy//src/per/qspi.h ****         OK = 0,
  36:../../libDaisy//src/per/qspi.h ****         ERR
  37:../../libDaisy//src/per/qspi.h ****     };
  38:../../libDaisy//src/per/qspi.h **** 
  39:../../libDaisy//src/per/qspi.h ****     /** Indicates the current status of the module. 
  40:../../libDaisy//src/per/qspi.h ****          *  Warnings are indicated by a leading W.
  41:../../libDaisy//src/per/qspi.h ****          *  Errors are indicated by a leading E and cause an immediate exit.
  42:../../libDaisy//src/per/qspi.h ****          * 
  43:../../libDaisy//src/per/qspi.h ****          *  \param GOOD - No errors have been reported.
  44:../../libDaisy//src/per/qspi.h ****          *  \param E_HAL_ERROR - HAL code did not return HAL_OK.
  45:../../libDaisy//src/per/qspi.h ****          *  \param E_SWITCHING_MODES - An error was encountered while switching QSPI peripheral mod
  46:../../libDaisy//src/per/qspi.h ****          *  \param E_INVALID_MODE - QSPI should not be written to while the program is executing fr
  47:../../libDaisy//src/per/qspi.h ****          */
  48:../../libDaisy//src/per/qspi.h ****     enum Status
  49:../../libDaisy//src/per/qspi.h ****     {
  50:../../libDaisy//src/per/qspi.h ****         GOOD = 0,
  51:../../libDaisy//src/per/qspi.h ****         E_HAL_ERROR,
  52:../../libDaisy//src/per/qspi.h ****         E_SWITCHING_MODES,
  53:../../libDaisy//src/per/qspi.h ****         E_INVALID_MODE,
  54:../../libDaisy//src/per/qspi.h ****     };
  55:../../libDaisy//src/per/qspi.h **** 
  56:../../libDaisy//src/per/qspi.h ****     /** Configuration structure for interfacing with QSPI Driver */
  57:../../libDaisy//src/per/qspi.h ****     struct Config
  58:../../libDaisy//src/per/qspi.h ****     {
  59:../../libDaisy//src/per/qspi.h ****         /** Flash Devices supported. (Both of these are more-or-less the same, just different sizes
  60:../../libDaisy//src/per/qspi.h ****         enum Device
  61:../../libDaisy//src/per/qspi.h ****         {
  62:../../libDaisy//src/per/qspi.h ****             IS25LP080D,  /**< & */
  63:../../libDaisy//src/per/qspi.h ****             IS25LP064A,  /**< & */
ARM GAS  C:\Users\Andrew\AppData\Local\Temp\ccOg8wBy.s 			page 64


  64:../../libDaisy//src/per/qspi.h ****             DEVICE_LAST, /**< & */
  65:../../libDaisy//src/per/qspi.h ****         };
  66:../../libDaisy//src/per/qspi.h **** 
  67:../../libDaisy//src/per/qspi.h ****         /** 
  68:../../libDaisy//src/per/qspi.h ****         Modes of operation.
  69:../../libDaisy//src/per/qspi.h ****         Memory Mapped mode: QSPI configured so that the QSPI can be
  70:../../libDaisy//src/per/qspi.h ****         read from starting address 0x90000000. Writing is not
  71:../../libDaisy//src/per/qspi.h ****         possible in this mode. \n 
  72:../../libDaisy//src/per/qspi.h ****         Indirect Polling mode: Device driver enabled. 
  73:../../libDaisy//src/per/qspi.h ****         */
  74:../../libDaisy//src/per/qspi.h ****         enum Mode
  75:../../libDaisy//src/per/qspi.h ****         {
  76:../../libDaisy//src/per/qspi.h ****             MEMORY_MAPPED,    /**< & */
  77:../../libDaisy//src/per/qspi.h ****             INDIRECT_POLLING, /**< & */
  78:../../libDaisy//src/per/qspi.h ****             MODE_LAST,
  79:../../libDaisy//src/per/qspi.h ****         };
  80:../../libDaisy//src/per/qspi.h **** 
  81:../../libDaisy//src/per/qspi.h ****         //SCK,  CE# (active low)
  82:../../libDaisy//src/per/qspi.h ****         struct
  83:../../libDaisy//src/per/qspi.h ****         {
  84:../../libDaisy//src/per/qspi.h ****             dsy_gpio_pin io0; /**< & */
  85:../../libDaisy//src/per/qspi.h ****             dsy_gpio_pin io1; /**< & */
  86:../../libDaisy//src/per/qspi.h ****             dsy_gpio_pin io2; /**< & */
  87:../../libDaisy//src/per/qspi.h ****             dsy_gpio_pin io3; /**< & */
  88:../../libDaisy//src/per/qspi.h ****             dsy_gpio_pin clk; /**< & */
  89:../../libDaisy//src/per/qspi.h ****             dsy_gpio_pin ncs; /**< & */
  90:../../libDaisy//src/per/qspi.h ****         } pin_config;
  91:../../libDaisy//src/per/qspi.h **** 
  92:../../libDaisy//src/per/qspi.h ****         Device device;
  93:../../libDaisy//src/per/qspi.h ****         Mode   mode;
  94:../../libDaisy//src/per/qspi.h ****     };
  95:../../libDaisy//src/per/qspi.h **** 
  96:../../libDaisy//src/per/qspi.h ****     /** 
  97:../../libDaisy//src/per/qspi.h ****         Initializes QSPI peripheral, and Resets, and prepares memory for access.
  98:../../libDaisy//src/per/qspi.h ****         \param config should be populated with the mode, device and pin_config before calling this 
  99:../../libDaisy//src/per/qspi.h ****         \return Result::OK or Result::ERR
 100:../../libDaisy//src/per/qspi.h ****         */
 101:../../libDaisy//src/per/qspi.h ****     Result Init(const Config& config);
 102:../../libDaisy//src/per/qspi.h **** 
 103:../../libDaisy//src/per/qspi.h ****     /** Returns the current config. */
 104:../../libDaisy//src/per/qspi.h ****     const Config& GetConfig() const;
 105:../../libDaisy//src/per/qspi.h **** 
 106:../../libDaisy//src/per/qspi.h ****     // Couldn't this just be called before anything else in init? That
 107:../../libDaisy//src/per/qspi.h ****     // would make manually calling it unnecessary.
 108:../../libDaisy//src/per/qspi.h ****     /** 
 109:../../libDaisy//src/per/qspi.h ****         Deinitializes the peripheral
 110:../../libDaisy//src/per/qspi.h ****         This should be called before reinitializing QSPI in a different mode.
 111:../../libDaisy//src/per/qspi.h ****         \return Result::OK or Result::ERR
 112:../../libDaisy//src/per/qspi.h ****         */
 113:../../libDaisy//src/per/qspi.h ****     Result DeInit();
 114:../../libDaisy//src/per/qspi.h **** 
 115:../../libDaisy//src/per/qspi.h ****     /** 
 116:../../libDaisy//src/per/qspi.h ****         Writes a single page to to the specified address on the QSPI chip.
 117:../../libDaisy//src/per/qspi.h ****         For IS25LP*, page size is 256 bytes.
 118:../../libDaisy//src/per/qspi.h ****         \param address Address to write to
 119:../../libDaisy//src/per/qspi.h ****         \param size Buffer size
 120:../../libDaisy//src/per/qspi.h ****         \param buffer Buffer to write
ARM GAS  C:\Users\Andrew\AppData\Local\Temp\ccOg8wBy.s 			page 65


 121:../../libDaisy//src/per/qspi.h ****         \return Result::OK or Result::ERR
 122:../../libDaisy//src/per/qspi.h ****         */
 123:../../libDaisy//src/per/qspi.h ****     Result WritePage(uint32_t address, uint32_t size, uint8_t* buffer);
 124:../../libDaisy//src/per/qspi.h **** 
 125:../../libDaisy//src/per/qspi.h ****     /** 
 126:../../libDaisy//src/per/qspi.h ****         Writes data in buffer to to the QSPI. Starting at address to address+size 
 127:../../libDaisy//src/per/qspi.h ****         \param address Address to write to
 128:../../libDaisy//src/per/qspi.h ****         \param size Buffer size
 129:../../libDaisy//src/per/qspi.h ****         \param buffer Buffer to write
 130:../../libDaisy//src/per/qspi.h ****         \return Result::OK or Result::ERR
 131:../../libDaisy//src/per/qspi.h ****         */
 132:../../libDaisy//src/per/qspi.h ****     Result Write(uint32_t address, uint32_t size, uint8_t* buffer);
 133:../../libDaisy//src/per/qspi.h **** 
 134:../../libDaisy//src/per/qspi.h ****     /** 
 135:../../libDaisy//src/per/qspi.h ****         Erases the area specified on the chip.
 136:../../libDaisy//src/per/qspi.h ****         Erasures will happen by 4K, 32K or 64K increments.
 137:../../libDaisy//src/per/qspi.h ****         Smallest erase possible is 4kB at a time. (on IS25LP*)
 138:../../libDaisy//src/per/qspi.h ****         \param start_addr Address to begin erasing from
 139:../../libDaisy//src/per/qspi.h ****         \param end_addr  Address to stop erasing at
 140:../../libDaisy//src/per/qspi.h ****         \return Result::OK or Result::ERR
 141:../../libDaisy//src/per/qspi.h ****         */
 142:../../libDaisy//src/per/qspi.h ****     Result Erase(uint32_t start_addr, uint32_t end_addr);
 143:../../libDaisy//src/per/qspi.h **** 
 144:../../libDaisy//src/per/qspi.h ****     /**  
 145:../../libDaisy//src/per/qspi.h ****          Erases a single sector of the chip.  
 146:../../libDaisy//src/per/qspi.h ****         TODO: Document the size of this function. 
 147:../../libDaisy//src/per/qspi.h ****         \param address Address of sector to erase
 148:../../libDaisy//src/per/qspi.h ****         \return Result::OK or Result::ERR
 149:../../libDaisy//src/per/qspi.h ****         */
 150:../../libDaisy//src/per/qspi.h ****     Result EraseSector(uint32_t address);
 151:../../libDaisy//src/per/qspi.h **** 
 152:../../libDaisy//src/per/qspi.h ****     /** Returns the current class status. Useful for debugging.
 153:../../libDaisy//src/per/qspi.h ****      *  \returns Status
 154:../../libDaisy//src/per/qspi.h ****      */
 155:../../libDaisy//src/per/qspi.h ****     Status GetStatus();
 156:../../libDaisy//src/per/qspi.h **** 
 157:../../libDaisy//src/per/qspi.h ****     /** Returns a pointer to the actual memory used 
 158:../../libDaisy//src/per/qspi.h ****      *  The memory at this address is read-only
 159:../../libDaisy//src/per/qspi.h ****      *  to write to it use the Write function.
 160:../../libDaisy//src/per/qspi.h ****      * 
 161:../../libDaisy//src/per/qspi.h ****      *  \param offset returns the pointer starting this 
 162:../../libDaisy//src/per/qspi.h ****      *                many bytes into the memory
 163:../../libDaisy//src/per/qspi.h ****     */
 164:../../libDaisy//src/per/qspi.h ****     void* GetData(uint32_t offset = 0);
 165:../../libDaisy//src/per/qspi.h **** 
 166:../../libDaisy//src/per/qspi.h ****     QSPIHandle() : pimpl_(nullptr) {}
 2216              		.loc 7 166 5 view .LVU671
 2217              	.LBE560:
 2218              	.LBE559:
 2219              	.LBE558:
 2220              	.LBE557:
 2221              	.LBE556:
 2222              		.loc 6 215 1 is_stmt 0 view .LVU672
 2223 0000 08B5     		push	{r3, lr}
 2224              		.cfi_def_cfa_offset 8
 2225              		.cfi_offset 3, -8
 2226              		.cfi_offset 14, -4
ARM GAS  C:\Users\Andrew\AppData\Local\Temp\ccOg8wBy.s 			page 66


 2227              	.LBB591:
 2228              	.LBB590:
 2229              	.LBB581:
 2230              	.LBB579:
 2231              	.LBB565:
 2232              	.LBB561:
 2233              	.LBB562:
 2234              		.loc 7 166 34 view .LVU673
 2235 0002 1148     		ldr	r0, .L36
 2236 0004 0023     		movs	r3, #0
 2237              	.LBE562:
 2238              	.LBE561:
 2239              	.LBE565:
 2240              	.LBE579:
 2241              	.LBE581:
 163:digiBassPreamp.cpp **** EQ3Band          eq;
 2242              		.loc 6 163 18 view .LVU674
 2243 0006 114A     		ldr	r2, .L36+4
 2244              	.LBB582:
 2245              	.LBB580:
 2246              	.LBB566:
 2247              	.LBB564:
 2248              	.LBB563:
 2249              		.loc 7 166 34 view .LVU675
 2250 0008 0360     		str	r3, [r0]
 2251              	.LVL157:
 2252              		.loc 7 166 34 view .LVU676
 2253              	.LBE563:
 2254              	.LBE564:
 2255              	.LBE566:
 2256              	.LBB567:
 2257              	.LBI567:
  95:../../libDaisy//src/hid/audio.h ****     ~AudioHandle() {}
 2258              		.loc 5 95 5 is_stmt 1 view .LVU677
 2259              	.LBB568:
 2260              	.LBB569:
  95:../../libDaisy//src/hid/audio.h ****     ~AudioHandle() {}
 2261              		.loc 5 95 35 is_stmt 0 view .LVU678
 2262 000a 4361     		str	r3, [r0, #20]
 2263              	.LVL158:
  95:../../libDaisy//src/hid/audio.h ****     ~AudioHandle() {}
 2264              		.loc 5 95 35 view .LVU679
 2265              	.LBE569:
 2266              	.LBE568:
 2267              	.LBE567:
 2268              	.LBB570:
 2269              	.LBI570:
 109:../../libDaisy//src/per/adc.h ****     ~AdcHandle() {}
 2270              		.loc 4 109 5 is_stmt 1 view .LVU680
 109:../../libDaisy//src/per/adc.h ****     ~AdcHandle() {}
 2271              		.loc 4 109 5 is_stmt 0 view .LVU681
 2272              	.LBE570:
 2273              	.LBB571:
 2274              	.LBI571:
 2275              		.file 8 "../../libDaisy//src/per/dac.h"
   1:../../libDaisy//src/per/dac.h **** #pragma once
   2:../../libDaisy//src/per/dac.h **** #ifndef DSY_DAC_H
ARM GAS  C:\Users\Andrew\AppData\Local\Temp\ccOg8wBy.s 			page 67


   3:../../libDaisy//src/per/dac.h **** #define DSY_DAC_H
   4:../../libDaisy//src/per/dac.h **** 
   5:../../libDaisy//src/per/dac.h **** #include "daisy_core.h"
   6:../../libDaisy//src/per/dac.h **** 
   7:../../libDaisy//src/per/dac.h **** namespace daisy
   8:../../libDaisy//src/per/dac.h **** {
   9:../../libDaisy//src/per/dac.h **** /** @brief DAC handle for Built-in DAC Peripheral 
  10:../../libDaisy//src/per/dac.h ****  *  @ingroup per_analog
  11:../../libDaisy//src/per/dac.h ****  ** 
  12:../../libDaisy//src/per/dac.h ****  ** For now only Normal Mode is supported,
  13:../../libDaisy//src/per/dac.h ****  ** Sample and hold mode provides reduced power consumption, but requires a bit more setup.
  14:../../libDaisy//src/per/dac.h ****  **
  15:../../libDaisy//src/per/dac.h ****  ** For now connecting the DAC through other internal peripherals is also not supported.
  16:../../libDaisy//src/per/dac.h ****  **
  17:../../libDaisy//src/per/dac.h ****  ** Since the DAC channels have dedicated pins we don't need to pass in a pin config like with
  18:../../libDaisy//src/per/dac.h ****  ** other modules. However, it is still important to not try to use the DAC pins for anything else.
  19:../../libDaisy//src/per/dac.h ****  ** DAC Channel 1 is on PA4, and DAC Channel 2 is on PA5
  20:../../libDaisy//src/per/dac.h ****  ***/
  21:../../libDaisy//src/per/dac.h **** class DacHandle
  22:../../libDaisy//src/per/dac.h **** {
  23:../../libDaisy//src/per/dac.h ****   public:
  24:../../libDaisy//src/per/dac.h ****     /** Return Values for the DacHandle class */
  25:../../libDaisy//src/per/dac.h ****     enum class Result
  26:../../libDaisy//src/per/dac.h ****     {
  27:../../libDaisy//src/per/dac.h ****         OK,
  28:../../libDaisy//src/per/dac.h ****         ERR,
  29:../../libDaisy//src/per/dac.h ****     };
  30:../../libDaisy//src/per/dac.h **** 
  31:../../libDaisy//src/per/dac.h ****     /** Selects which channel(s) will be configured for use. */
  32:../../libDaisy//src/per/dac.h ****     enum class Channel
  33:../../libDaisy//src/per/dac.h ****     {
  34:../../libDaisy//src/per/dac.h ****         ONE,
  35:../../libDaisy//src/per/dac.h ****         TWO,
  36:../../libDaisy//src/per/dac.h ****         BOTH,
  37:../../libDaisy//src/per/dac.h ****     };
  38:../../libDaisy//src/per/dac.h **** 
  39:../../libDaisy//src/per/dac.h ****     /** Sets the Mode for the DAC channels.
  40:../../libDaisy//src/per/dac.h ****      **
  41:../../libDaisy//src/per/dac.h ****      ** Polling mode uses the blocking mode to transmit a single value at a time.
  42:../../libDaisy//src/per/dac.h ****      **
  43:../../libDaisy//src/per/dac.h ****      ** DMA mode uses a buffer, and periodically transmits it triggering a 
  44:../../libDaisy//src/per/dac.h ****      ** callback to fill the buffer when it is ready for more samples.
  45:../../libDaisy//src/per/dac.h ****      ***/
  46:../../libDaisy//src/per/dac.h ****     enum class Mode
  47:../../libDaisy//src/per/dac.h ****     {
  48:../../libDaisy//src/per/dac.h ****         POLLING,
  49:../../libDaisy//src/per/dac.h ****         DMA,
  50:../../libDaisy//src/per/dac.h ****     };
  51:../../libDaisy//src/per/dac.h **** 
  52:../../libDaisy//src/per/dac.h ****     /** Sets the number of bits per sample transmitted out of the DAC.
  53:../../libDaisy//src/per/dac.h ****      ** The output range will be: 0V - VDDA
  54:../../libDaisy//src/per/dac.h ****      ** The resolution will be roughly: bitdepth / (VDDA - 0V) 
  55:../../libDaisy//src/per/dac.h ****      ***/
  56:../../libDaisy//src/per/dac.h ****     enum class BitDepth
  57:../../libDaisy//src/per/dac.h ****     {
  58:../../libDaisy//src/per/dac.h ****         BITS_8,
  59:../../libDaisy//src/per/dac.h ****         BITS_12
ARM GAS  C:\Users\Andrew\AppData\Local\Temp\ccOg8wBy.s 			page 68


  60:../../libDaisy//src/per/dac.h ****     };
  61:../../libDaisy//src/per/dac.h **** 
  62:../../libDaisy//src/per/dac.h ****     /** Sets whether the DAC output is buffered for higher drive ability. */
  63:../../libDaisy//src/per/dac.h ****     enum class BufferState
  64:../../libDaisy//src/per/dac.h ****     {
  65:../../libDaisy//src/per/dac.h ****         ENABLED,
  66:../../libDaisy//src/per/dac.h ****         DISABLED,
  67:../../libDaisy//src/per/dac.h ****     };
  68:../../libDaisy//src/per/dac.h **** 
  69:../../libDaisy//src/per/dac.h ****     /** Configuration structure for initializing the DAC structure. */
  70:../../libDaisy//src/per/dac.h ****     struct Config
  71:../../libDaisy//src/per/dac.h ****     {
  72:../../libDaisy//src/per/dac.h ****         /** Target Samplerate in Hz used to configure the internal 
  73:../../libDaisy//src/per/dac.h ****          ** timebase for DMA mode. Does nothing in POLLING mode.
  74:../../libDaisy//src/per/dac.h ****          ** If the value is 0 at Init time this will default to 48000Hz 
  75:../../libDaisy//src/per/dac.h ****          ** otherwise the driver will attempt meet the target.*/
  76:../../libDaisy//src/per/dac.h ****         uint32_t target_samplerate;
  77:../../libDaisy//src/per/dac.h **** 
  78:../../libDaisy//src/per/dac.h ****         Channel     chn;
  79:../../libDaisy//src/per/dac.h ****         Mode        mode;
  80:../../libDaisy//src/per/dac.h ****         BitDepth    bitdepth;
  81:../../libDaisy//src/per/dac.h ****         BufferState buff_state;
  82:../../libDaisy//src/per/dac.h ****     };
  83:../../libDaisy//src/per/dac.h **** 
  84:../../libDaisy//src/per/dac.h ****     DacHandle() : pimpl_(nullptr) {}
 2276              		.loc 8 84 5 is_stmt 1 view .LVU682
 2277              	.LBB572:
 2278              	.LBB573:
 2279              		.loc 8 84 33 is_stmt 0 view .LVU683
 2280 000c 0362     		str	r3, [r0, #32]
 2281              	.LVL159:
 2282              		.loc 8 84 33 view .LVU684
 2283              	.LBE573:
 2284              	.LBE572:
 2285              	.LBE571:
 2286              	.LBB574:
 2287              	.LBI574:
  40:../../libDaisy//src/hid/usb.h **** 
 2288              		.loc 3 40 5 is_stmt 1 view .LVU685
  40:../../libDaisy//src/hid/usb.h **** 
 2289              		.loc 3 40 5 is_stmt 0 view .LVU686
 2290              	.LBE574:
 2291              	.LBB575:
 2292              	.LBI575:
  96:../../libDaisy//src/sys/system.h ****     ~System() {}
 2293              		.loc 2 96 5 is_stmt 1 view .LVU687
  96:../../libDaisy//src/sys/system.h ****     ~System() {}
 2294              		.loc 2 96 5 is_stmt 0 view .LVU688
 2295              	.LBE575:
 2296              	.LBB576:
 2297              	.LBI576:
 2298              		.file 9 "../../libDaisy//src/per/sai.h"
   1:../../libDaisy//src/per/sai.h **** #pragma once
   2:../../libDaisy//src/per/sai.h **** #ifndef DSY_SAI_H
   3:../../libDaisy//src/per/sai.h **** #define DSY_SAI_H
   4:../../libDaisy//src/per/sai.h **** 
   5:../../libDaisy//src/per/sai.h **** #include "daisy_core.h"
ARM GAS  C:\Users\Andrew\AppData\Local\Temp\ccOg8wBy.s 			page 69


   6:../../libDaisy//src/per/sai.h **** 
   7:../../libDaisy//src/per/sai.h **** namespace daisy
   8:../../libDaisy//src/per/sai.h **** {
   9:../../libDaisy//src/per/sai.h **** /** 
  10:../../libDaisy//src/per/sai.h ****  * Support for I2S Audio Protocol with different bit-depth, samplerate options
  11:../../libDaisy//src/per/sai.h ****  * Allows for master or slave, as well as freedom of selecting direction, 
  12:../../libDaisy//src/per/sai.h ****  * and other behavior for each peripheral, and block.
  13:../../libDaisy//src/per/sai.h ****  * 
  14:../../libDaisy//src/per/sai.h ****  * DMA Transfer commands must use buffers located within non-cached memory or use cache maintenance
  15:../../libDaisy//src/per/sai.h ****  * To declare an unitialized global element in the DMA memory section:
  16:../../libDaisy//src/per/sai.h ****  *    int32_t DSY_DMA_BUFFER_SECTOR my_buffer[96];
  17:../../libDaisy//src/per/sai.h ****  *
  18:../../libDaisy//src/per/sai.h ****  * Callback functions will be called once per half of the buffer. In the above example, 
  19:../../libDaisy//src/per/sai.h ****  * the callback function would be called once for every 48 samples.
  20:../../libDaisy//src/per/sai.h ****  * 
  21:../../libDaisy//src/per/sai.h ****  * Use SAI Handle like this:
  22:../../libDaisy//src/per/sai.h ****  * 
  23:../../libDaisy//src/per/sai.h ****  *  SaiHandle::Config sai_config;
  24:../../libDaisy//src/per/sai.h ****  *  sai_config.periph          = SaiHandle::Config::Peripheral::SAI_1;
  25:../../libDaisy//src/per/sai.h ****  *  sai_config.sr              = SaiHandle::Config::SampleRate::SAI_48KHZ;
  26:../../libDaisy//src/per/sai.h ****  *  sai_config.bit_depth       = SaiHandle::Config::BitDepth::SAI_24BIT;
  27:../../libDaisy//src/per/sai.h ****  *  sai_config.a_sync          = SaiHandle::Config::Sync::MASTER;
  28:../../libDaisy//src/per/sai.h ****  *  sai_config.b_sync          = SaiHandle::Config::Sync::SLAVE;
  29:../../libDaisy//src/per/sai.h ****  *  sai_config.a_dir           = SaiHandle::Config::Direction::RECEIVE;
  30:../../libDaisy//src/per/sai.h ****  *  sai_config.b_dir           = SaiHandle::Config::Direction::TRANSMIT;
  31:../../libDaisy//src/per/sai.h ****  *  sai_config.pin_config.fs   = {DSY_GPIOE, 4};
  32:../../libDaisy//src/per/sai.h ****  *  sai_config.pin_config.mclk = {DSY_GPIOE, 2};
  33:../../libDaisy//src/per/sai.h ****  *  sai_config.pin_config.sck  = {DSY_GPIOE, 5};
  34:../../libDaisy//src/per/sai.h ****  *  sai_config.pin_config.sa   = {DSY_GPIOE, 6};
  35:../../libDaisy//src/per/sai.h ****  *  sai_config.pin_config.sb   = {DSY_GPIOE, 3};
  36:../../libDaisy//src/per/sai.h ****  *  // Then Initialize
  37:../../libDaisy//src/per/sai.h ****  *  SaiHandle sai;
  38:../../libDaisy//src/per/sai.h ****  *  sai.Init(sai_config);
  39:../../libDaisy//src/per/sai.h ****  *  // Now you can use it:
  40:../../libDaisy//src/per/sai.h ****  *  sai.StartDma(. . .);
  41:../../libDaisy//src/per/sai.h ****  */
  42:../../libDaisy//src/per/sai.h **** class SaiHandle
  43:../../libDaisy//src/per/sai.h **** {
  44:../../libDaisy//src/per/sai.h ****   public:
  45:../../libDaisy//src/per/sai.h ****     /** Contains settings for initialising an SAI Interface */
  46:../../libDaisy//src/per/sai.h ****     struct Config
  47:../../libDaisy//src/per/sai.h ****     {
  48:../../libDaisy//src/per/sai.h ****         /** Specifies the internal peripheral to use (mapped to different hardware pins) */
  49:../../libDaisy//src/per/sai.h ****         enum class Peripheral
  50:../../libDaisy//src/per/sai.h ****         {
  51:../../libDaisy//src/per/sai.h ****             SAI_1,
  52:../../libDaisy//src/per/sai.h ****             SAI_2,
  53:../../libDaisy//src/per/sai.h ****         };
  54:../../libDaisy//src/per/sai.h **** 
  55:../../libDaisy//src/per/sai.h ****         /** Rate at which samples will be streaming to/from the device. */
  56:../../libDaisy//src/per/sai.h ****         enum class SampleRate
  57:../../libDaisy//src/per/sai.h ****         {
  58:../../libDaisy//src/per/sai.h ****             SAI_8KHZ,
  59:../../libDaisy//src/per/sai.h ****             SAI_16KHZ,
  60:../../libDaisy//src/per/sai.h ****             SAI_32KHZ,
  61:../../libDaisy//src/per/sai.h ****             SAI_48KHZ,
  62:../../libDaisy//src/per/sai.h ****             SAI_96KHZ,
ARM GAS  C:\Users\Andrew\AppData\Local\Temp\ccOg8wBy.s 			page 70


  63:../../libDaisy//src/per/sai.h ****         };
  64:../../libDaisy//src/per/sai.h **** 
  65:../../libDaisy//src/per/sai.h ****         /** Bit Depth that the hardware expects to be transferred to/from the device. */
  66:../../libDaisy//src/per/sai.h ****         enum class BitDepth
  67:../../libDaisy//src/per/sai.h ****         {
  68:../../libDaisy//src/per/sai.h ****             SAI_16BIT,
  69:../../libDaisy//src/per/sai.h ****             SAI_24BIT,
  70:../../libDaisy//src/per/sai.h ****             SAI_32BIT,
  71:../../libDaisy//src/per/sai.h ****         };
  72:../../libDaisy//src/per/sai.h **** 
  73:../../libDaisy//src/per/sai.h ****         /** Specifies whether a particular block is the master or the slave 
  74:../../libDaisy//src/per/sai.h ****          ** If both are set to slave, no MCLK signal will be used, and it is
  75:../../libDaisy//src/per/sai.h ****          ** expected that the codec will have its own xtal.
  76:../../libDaisy//src/per/sai.h ****          */
  77:../../libDaisy//src/per/sai.h ****         enum class Sync
  78:../../libDaisy//src/per/sai.h ****         {
  79:../../libDaisy//src/per/sai.h ****             MASTER,
  80:../../libDaisy//src/per/sai.h ****             SLAVE,
  81:../../libDaisy//src/per/sai.h ****         };
  82:../../libDaisy//src/per/sai.h **** 
  83:../../libDaisy//src/per/sai.h ****         /** Specifies the direction for each peripheral block. */
  84:../../libDaisy//src/per/sai.h ****         enum class Direction
  85:../../libDaisy//src/per/sai.h ****         {
  86:../../libDaisy//src/per/sai.h ****             TRANSMIT,
  87:../../libDaisy//src/per/sai.h ****             RECEIVE,
  88:../../libDaisy//src/per/sai.h ****         };
  89:../../libDaisy//src/per/sai.h **** 
  90:../../libDaisy//src/per/sai.h ****         Peripheral periph;
  91:../../libDaisy//src/per/sai.h ****         struct
  92:../../libDaisy//src/per/sai.h ****         {
  93:../../libDaisy//src/per/sai.h ****             dsy_gpio_pin mclk, fs, sck, sa, sb;
  94:../../libDaisy//src/per/sai.h ****         } pin_config;
  95:../../libDaisy//src/per/sai.h ****         SampleRate sr;
  96:../../libDaisy//src/per/sai.h ****         BitDepth   bit_depth;
  97:../../libDaisy//src/per/sai.h ****         Sync       a_sync, b_sync;
  98:../../libDaisy//src/per/sai.h ****         Direction  a_dir, b_dir;
  99:../../libDaisy//src/per/sai.h ****     };
 100:../../libDaisy//src/per/sai.h **** 
 101:../../libDaisy//src/per/sai.h ****     /** Return values for SAI functions */
 102:../../libDaisy//src/per/sai.h ****     enum class Result
 103:../../libDaisy//src/per/sai.h ****     {
 104:../../libDaisy//src/per/sai.h ****         OK,
 105:../../libDaisy//src/per/sai.h ****         ERR,
 106:../../libDaisy//src/per/sai.h ****     };
 107:../../libDaisy//src/per/sai.h **** 
 108:../../libDaisy//src/per/sai.h ****     SaiHandle() : pimpl_(nullptr) {}
 2299              		.loc 9 108 5 is_stmt 1 view .LVU689
 2300              	.LBB577:
 2301              	.LBB578:
 2302              		.loc 9 108 33 is_stmt 0 view .LVU690
 2303 000e C363     		str	r3, [r0, #60]
 2304              	.LVL160:
 2305              		.loc 9 108 33 view .LVU691
 2306              	.LBE578:
 2307              	.LBE577:
 2308              	.LBE576:
 2309              	.LBE580:
ARM GAS  C:\Users\Andrew\AppData\Local\Temp\ccOg8wBy.s 			page 71


 2310              	.LBE582:
 163:digiBassPreamp.cpp **** EQ3Band          eq;
 2311              		.loc 6 163 18 view .LVU692
 2312 0010 0F49     		ldr	r1, .L36+8
 2313 0012 FFF7FEFF 		bl	__aeabi_atexit
 2314              	.LVL161:
 2315              	.LBB583:
 2316              	.LBI583:
  40:digiBassPreamp.cpp **** {
 2317              		.loc 6 40 7 is_stmt 1 view .LVU693
 2318              	.LBB584:
 2319              	.LBI584:
  12:digiBassPreamp.cpp **** {
 2320              		.loc 6 12 8 view .LVU694
 2321              	.LBB585:
 2322 0016 0F4B     		ldr	r3, .L36+12
 2323 0018 0022     		movs	r2, #0
 2324 001a 5A60     		str	r2, [r3, #4]	@ float
 2325 001c 9A60     		str	r2, [r3, #8]	@ float
 2326 001e DA60     		str	r2, [r3, #12]	@ float
 2327 0020 1A61     		str	r2, [r3, #16]	@ float
 2328 0022 5A61     		str	r2, [r3, #20]	@ float
 2329 0024 9A61     		str	r2, [r3, #24]	@ float
 2330 0026 DA61     		str	r2, [r3, #28]	@ float
 2331              	.LVL162:
  12:digiBassPreamp.cpp **** {
 2332              		.loc 6 12 8 is_stmt 0 view .LVU695
 2333              	.LBE585:
 2334              	.LBE584:
 2335              	.LBB586:
 2336              	.LBI586:
  12:digiBassPreamp.cpp **** {
 2337              		.loc 6 12 8 is_stmt 1 view .LVU696
 2338              	.LBB587:
 2339 0028 1A62     		str	r2, [r3, #32]	@ float
 2340 002a 5A62     		str	r2, [r3, #36]	@ float
 2341 002c 9A62     		str	r2, [r3, #40]	@ float
 2342 002e DA62     		str	r2, [r3, #44]	@ float
 2343 0030 1A63     		str	r2, [r3, #48]	@ float
 2344 0032 5A63     		str	r2, [r3, #52]	@ float
 2345 0034 9A63     		str	r2, [r3, #56]	@ float
 2346              	.LVL163:
  12:digiBassPreamp.cpp **** {
 2347              		.loc 6 12 8 is_stmt 0 view .LVU697
 2348              	.LBE587:
 2349              	.LBE586:
 2350              	.LBB588:
 2351              	.LBI588:
  12:digiBassPreamp.cpp **** {
 2352              		.loc 6 12 8 is_stmt 1 view .LVU698
 2353              	.LBB589:
 2354 0036 DA63     		str	r2, [r3, #60]	@ float
 2355 0038 1A64     		str	r2, [r3, #64]	@ float
 2356 003a 5A64     		str	r2, [r3, #68]	@ float
 2357 003c 9A64     		str	r2, [r3, #72]	@ float
 2358 003e DA64     		str	r2, [r3, #76]	@ float
 2359 0040 1A65     		str	r2, [r3, #80]	@ float
ARM GAS  C:\Users\Andrew\AppData\Local\Temp\ccOg8wBy.s 			page 72


 2360 0042 5A65     		str	r2, [r3, #84]	@ float
 2361              	.LVL164:
  12:digiBassPreamp.cpp **** {
 2362              		.loc 6 12 8 is_stmt 0 view .LVU699
 2363              	.LBE589:
 2364              	.LBE588:
 2365              	.LBE583:
 2366              	.LBE590:
 2367              	.LBE591:
 2368              		.loc 6 215 1 view .LVU700
 2369 0044 08BD     		pop	{r3, pc}
 2370              	.L37:
 2371 0046 00BF     		.align	2
 2372              	.L36:
 2373 0048 00000000 		.word	.LANCHOR1
 2374 004c 00000000 		.word	__dso_handle
 2375 0050 00000000 		.word	_ZN5daisy9DaisySeedD1Ev
 2376 0054 00000000 		.word	.LANCHOR0
 2377              		.cfi_endproc
 2378              	.LFE5264:
 2380              		.section	.init_array,"aw",%init_array
 2381              		.align	2
 2382 0000 00000000 		.word	_GLOBAL__sub_I_hw(target1)
 2383              		.global	adcConfig
 2384              		.global	eq
 2385              		.global	hw
 2386              		.section	.bss.adcConfig,"aw",%nobits
 2387              		.align	2
 2388              		.set	.LANCHOR2,. + 0
 2391              	adcConfig:
 2392 0000 00000000 		.space	54
 2392      00000000 
 2392      00000000 
 2392      00000000 
 2392      00000000 
 2393              		.section	.bss.eq,"aw",%nobits
 2394              		.align	2
 2395              		.set	.LANCHOR0,. + 0
 2398              	eq:
 2399 0000 00000000 		.space	112
 2399      00000000 
 2399      00000000 
 2399      00000000 
 2399      00000000 
 2400              		.section	.bss.hw,"aw",%nobits
 2401              		.align	2
 2402              		.set	.LANCHOR1,. + 0
 2405              	hw:
 2406 0000 00000000 		.space	64
 2406      00000000 
 2406      00000000 
 2406      00000000 
 2406      00000000 
 2407              		.text
 2408              	.Letext0:
 2409              		.file 10 "c:\\program files\\daisytoolchain\\arm-none-eabi\\include\\machine\\_default_types.h"
 2410              		.file 11 "c:\\program files\\daisytoolchain\\arm-none-eabi\\include\\sys\\_stdint.h"
ARM GAS  C:\Users\Andrew\AppData\Local\Temp\ccOg8wBy.s 			page 73


 2411              		.file 12 "c:\\program files\\daisytoolchain\\arm-none-eabi\\include\\stdint.h"
 2412              		.file 13 "c:\\program files\\daisytoolchain\\lib\\gcc\\arm-none-eabi\\10.2.1\\include\\stddef.h"
 2413              		.file 14 "c:\\program files\\daisytoolchain\\arm-none-eabi\\include\\c++\\10.2.1\\cmath"
 2414              		.file 15 "c:\\program files\\daisytoolchain\\arm-none-eabi\\include\\c++\\10.2.1\\bits\\std_abs.h"
 2415              		.file 16 "c:\\program files\\daisytoolchain\\arm-none-eabi\\include\\c++\\10.2.1\\cstdlib"
 2416              		.file 17 "c:\\program files\\daisytoolchain\\arm-none-eabi\\include\\c++\\10.2.1\\cstdint"
 2417              		.file 18 "c:\\program files\\daisytoolchain\\arm-none-eabi\\include\\c++\\10.2.1\\type_traits"
 2418              		.file 19 "c:\\program files\\daisytoolchain\\arm-none-eabi\\include\\c++\\10.2.1\\debug\\debug.h"
 2419              		.file 20 "c:\\program files\\daisytoolchain\\arm-none-eabi\\include\\c++\\10.2.1\\arm-none-eabi\\t
 2420              		.file 21 "c:\\program files\\daisytoolchain\\arm-none-eabi\\include\\c++\\10.2.1\\bits\\algorithmf
 2421              		.file 22 "c:\\program files\\daisytoolchain\\arm-none-eabi\\include\\c++\\10.2.1\\bits\\stl_pair.h
 2422              		.file 23 "c:\\program files\\daisytoolchain\\arm-none-eabi\\include\\c++\\10.2.1\\bits\\exception_
 2423              		.file 24 "c:\\program files\\daisytoolchain\\arm-none-eabi\\include\\c++\\10.2.1\\cstdarg"
 2424              		.file 25 "c:\\program files\\daisytoolchain\\arm-none-eabi\\include\\c++\\10.2.1\\cstdio"
 2425              		.file 26 "c:\\program files\\daisytoolchain\\arm-none-eabi\\include\\c++\\10.2.1\\cstring"
 2426              		.file 27 "c:\\program files\\daisytoolchain\\arm-none-eabi\\include\\c++\\10.2.1\\cwchar"
 2427              		.file 28 "c:\\program files\\daisytoolchain\\arm-none-eabi\\include\\c++\\10.2.1\\clocale"
 2428              		.file 29 "c:\\program files\\daisytoolchain\\arm-none-eabi\\include\\c++\\10.2.1\\bits\\basic_stri
 2429              		.file 30 "c:\\program files\\daisytoolchain\\arm-none-eabi\\include\\c++\\10.2.1\\bits\\stl_tempbu
 2430              		.file 31 "c:\\program files\\daisytoolchain\\arm-none-eabi\\include\\c++\\10.2.1\\bits\\predefined
 2431              		.file 32 "c:\\program files\\daisytoolchain\\arm-none-eabi\\include\\sys\\_types.h"
 2432              		.file 33 "c:\\program files\\daisytoolchain\\arm-none-eabi\\include\\sys\\reent.h"
 2433              		.file 34 "c:\\program files\\daisytoolchain\\arm-none-eabi\\include\\sys\\lock.h"
 2434              		.file 35 "c:\\program files\\daisytoolchain\\arm-none-eabi\\include\\math.h"
 2435              		.file 36 "c:\\program files\\daisytoolchain\\arm-none-eabi\\include\\stdlib.h"
 2436              		.file 37 "c:\\program files\\daisytoolchain\\arm-none-eabi\\include\\c++\\10.2.1\\math.h"
 2437              		.file 38 "c:\\program files\\daisytoolchain\\arm-none-eabi\\include\\c++\\10.2.1\\stdlib.h"
 2438              		.file 39 "../../libDaisy//src/daisy_core.h"
 2439              		.file 40 "../../libDaisy//src/per/tim.h"
 2440              		.file 41 "../../libDaisy//src/hid/logger_impl.h"
 2441              		.file 42 "../../libDaisy//src/util/wav_format.h"
 2442              		.file 43 "../../libDaisy//src/dev/max11300.h"
 2443              		.file 44 "../../libDaisy//src/hid/logger.h"
 2444              		.file 45 "../../libDaisy//src/per/gpio.h"
 2445              		.file 46 "../../libDaisy//src/dev/sdram.h"
 2446              		.file 47 "c:\\program files\\daisytoolchain\\lib\\gcc\\arm-none-eabi\\10.2.1\\include\\stdarg.h"
 2447              		.file 48 "c:\\program files\\daisytoolchain\\arm-none-eabi\\include\\stdio.h"
 2448              		.file 49 "c:\\program files\\daisytoolchain\\arm-none-eabi\\include\\string.h"
 2449              		.file 50 "../../DaisySP//Source/Control/adenv.h"
 2450              		.file 51 "../../DaisySP//Source/Utility/dsp.h"
 2451              		.file 52 "c:\\program files\\daisytoolchain\\arm-none-eabi\\include\\wchar.h"
 2452              		.file 53 "c:\\program files\\daisytoolchain\\arm-none-eabi\\include\\locale.h"
 2453              		.file 54 "<built-in>"
 2454              		.file 55 "../../libDaisy//src/dev/sr_595.h"
ARM GAS  C:\Users\Andrew\AppData\Local\Temp\ccOg8wBy.s 			page 74

